   1              		.cpu arm9
   2              		.fpu softvfp
   3              		.eabi_attribute 20, 1
   4              		.eabi_attribute 21, 1
   5              		.eabi_attribute 23, 3
   6              		.eabi_attribute 24, 1
   7              		.eabi_attribute 25, 1
   8              		.eabi_attribute 26, 1
   9              		.eabi_attribute 30, 4
  10              		.eabi_attribute 34, 0
  11              		.eabi_attribute 18, 4
  12              		.file	"PhysicsMaster.cpp"
  13              		.text
  14              	.Ltext0:
  15              		.cfi_sections	.debug_frame
  16              		.align	2
  17              		.global	_ZN9tinyUnity13PhysicsMasterD2Ev
  19              	_ZN9tinyUnity13PhysicsMasterD2Ev:
  20              	.LFB488:
  21              		.file 1 "../source/tinyUnity/PhysicsMaster.cpp"
   1:../source/tinyUnity/PhysicsMaster.cpp **** /*
   2:../source/tinyUnity/PhysicsMaster.cpp ****  * PhysicsMaster.cpp
   3:../source/tinyUnity/PhysicsMaster.cpp ****  *
   4:../source/tinyUnity/PhysicsMaster.cpp ****  *  Created on: 2013-06-15
   5:../source/tinyUnity/PhysicsMaster.cpp ****  *      Author: awiebe
   6:../source/tinyUnity/PhysicsMaster.cpp ****  */
   7:../source/tinyUnity/PhysicsMaster.cpp **** 
   8:../source/tinyUnity/PhysicsMaster.cpp **** #include "PhysicsMaster.h"
   9:../source/tinyUnity/PhysicsMaster.cpp **** 
  10:../source/tinyUnity/PhysicsMaster.cpp **** namespace tinyUnity {
  11:../source/tinyUnity/PhysicsMaster.cpp **** 
  12:../source/tinyUnity/PhysicsMaster.cpp **** PhysicsMaster::PhysicsMaster() {
  13:../source/tinyUnity/PhysicsMaster.cpp **** 	// TODO Auto-generated constructor stub
  14:../source/tinyUnity/PhysicsMaster.cpp **** 
  15:../source/tinyUnity/PhysicsMaster.cpp **** }
  16:../source/tinyUnity/PhysicsMaster.cpp **** 
  17:../source/tinyUnity/PhysicsMaster.cpp **** PhysicsMaster::~PhysicsMaster() {
  22              		.loc 1 17 0
  23              		.cfi_startproc
  24              		@ Function supports interworking.
  25              		@ args = 0, pretend = 0, frame = 0
  26              		@ frame_needed = 0, uses_anonymous_args = 0
  27              		@ link register save eliminated.
  28              	.LVL0:
  29              	.LBB5:
  30              		.loc 1 17 0
  31 0000 04309FE5 		ldr	r3, .L2
  32 0004 003080E5 		str	r3, [r0]
  33              	.LBE5:
  18:../source/tinyUnity/PhysicsMaster.cpp **** 	// TODO Auto-generated destructor stub
  19:../source/tinyUnity/PhysicsMaster.cpp **** }
  34              		.loc 1 19 0
  35 0008 1EFF2FE1 		bx	lr
  36              	.L3:
  37              		.align	2
  38              	.L2:
  39 000c 08000000 		.word	.LANCHOR0+8
  40              		.cfi_endproc
  41              	.LFE488:
  43              		.global	_ZN9tinyUnity13PhysicsMasterD1Ev
  44              		.set	_ZN9tinyUnity13PhysicsMasterD1Ev,_ZN9tinyUnity13PhysicsMasterD2Ev
  45              		.align	2
  46              		.global	_ZN9tinyUnity13PhysicsMasterD0Ev
  48              	_ZN9tinyUnity13PhysicsMasterD0Ev:
  49              	.LFB490:
  17:../source/tinyUnity/PhysicsMaster.cpp **** 	// TODO Auto-generated destructor stub
  50              		.loc 1 17 0
  51              		.cfi_startproc
  52              		@ Function supports interworking.
  53              		@ args = 0, pretend = 0, frame = 0
  54              		@ frame_needed = 0, uses_anonymous_args = 0
  55              	.LVL1:
  56 0010 10402DE9 		stmfd	sp!, {r4, lr}
  57              	.LCFI0:
  58              		.cfi_def_cfa_offset 8
  59              		.cfi_offset 4, -8
  60              		.cfi_offset 14, -4
  61              	.LBB6:
  62              	.LBB7:
  17:../source/tinyUnity/PhysicsMaster.cpp **** 	// TODO Auto-generated destructor stub
  63              		.loc 1 17 0
  64 0014 14309FE5 		ldr	r3, .L5
  65              	.LBE7:
  66              	.LBE6:
  67 0018 0040A0E1 		mov	r4, r0
  68              	.LBB9:
  69              	.LBB8:
  70 001c 003080E5 		str	r3, [r0]
  71              	.LBE8:
  72              	.LBE9:
  73              		.loc 1 19 0
  74 0020 FEFFFFEB 		bl	_ZdlPv
  75              	.LVL2:
  76 0024 0400A0E1 		mov	r0, r4
  77 0028 1040BDE8 		ldmfd	sp!, {r4, lr}
  78              	.LVL3:
  79 002c 1EFF2FE1 		bx	lr
  80              	.L6:
  81              		.align	2
  82              	.L5:
  83 0030 08000000 		.word	.LANCHOR0+8
  84              		.cfi_endproc
  85              	.LFE490:
  87              		.align	2
  88              		.global	_ZN9tinyUnity13PhysicsMasterC2Ev
  90              	_ZN9tinyUnity13PhysicsMasterC2Ev:
  91              	.LFB485:
  12:../source/tinyUnity/PhysicsMaster.cpp **** 	// TODO Auto-generated constructor stub
  92              		.loc 1 12 0
  93              		.cfi_startproc
  94              		@ Function supports interworking.
  95              		@ args = 0, pretend = 0, frame = 0
  96              		@ frame_needed = 0, uses_anonymous_args = 0
  97              		@ link register save eliminated.
  98              	.LVL4:
  99              	.LBB10:
  12:../source/tinyUnity/PhysicsMaster.cpp **** 	// TODO Auto-generated constructor stub
 100              		.loc 1 12 0
 101 0034 04309FE5 		ldr	r3, .L8
 102 0038 003080E5 		str	r3, [r0]
 103              	.LBE10:
  15:../source/tinyUnity/PhysicsMaster.cpp **** 
 104              		.loc 1 15 0
 105 003c 1EFF2FE1 		bx	lr
 106              	.L9:
 107              		.align	2
 108              	.L8:
 109 0040 08000000 		.word	.LANCHOR0+8
 110              		.cfi_endproc
 111              	.LFE485:
 113              		.global	_ZN9tinyUnity13PhysicsMasterC1Ev
 114              		.set	_ZN9tinyUnity13PhysicsMasterC1Ev,_ZN9tinyUnity13PhysicsMasterC2Ev
 115              		.global	_ZTVN9tinyUnity13PhysicsMasterE
 116              		.section	.rodata
 117              		.align	3
 118              		.set	.LANCHOR0,. + 0
 121              	_ZTVN9tinyUnity13PhysicsMasterE:
 122 0000 00000000 		.word	0
 123 0004 00000000 		.word	0
 124 0008 00000000 		.word	_ZN9tinyUnity13PhysicsMasterD1Ev
 125 000c 00000000 		.word	_ZN9tinyUnity13PhysicsMasterD0Ev
 126              		.text
 127              	.Letext0:
 128              		.file 2 "/Users/awiebe/devkitPro/devkitARM/arm-none-eabi/include/c++/4.8.2/arm-none-eabi/bits/c++c
 129              		.file 3 "/Users/awiebe/devkitPro/devkitARM/arm-none-eabi/include/c++/4.8.2/ext/new_allocator.h"
 130              		.file 4 "/Users/awiebe/devkitPro/devkitARM/arm-none-eabi/include/c++/4.8.2/bits/cpp_type_traits.h"
 131              		.file 5 "/Users/awiebe/devkitPro/devkitARM/arm-none-eabi/include/c++/4.8.2/debug/debug.h"
 132              		.file 6 "../source/tinyUnity/PhysicsMaster.h"
 133              		.file 7 "<built-in>"
 134              		.file 8 "/Users/awiebe/devkitPro/devkitARM/arm-none-eabi/include/c++/4.8.2/new"