   1              		.cpu arm9
   2              		.fpu softvfp
   3              		.eabi_attribute 20, 1
   4              		.eabi_attribute 21, 1
   5              		.eabi_attribute 23, 3
   6              		.eabi_attribute 24, 1
   7              		.eabi_attribute 25, 1
   8              		.eabi_attribute 26, 1
   9              		.eabi_attribute 30, 4
  10              		.eabi_attribute 34, 0
  11              		.eabi_attribute 18, 4
  12              		.file	"ShaderMaterial.cpp"
  13              		.text
  14              	.Ltext0:
  15              		.cfi_sections	.debug_frame
  16              		.align	2
  17              		.global	_ZN9tinyUnity14ShaderMaterialD2Ev
  19              	_ZN9tinyUnity14ShaderMaterialD2Ev:
  20              	.LFB4:
  21              		.file 1 "../source/tinyUnity/ShaderMaterial.cpp"
   1:../source/tinyUnity/ShaderMaterial.cpp **** /*
   2:../source/tinyUnity/ShaderMaterial.cpp ****  * ShaderMaterial.cpp
   3:../source/tinyUnity/ShaderMaterial.cpp ****  *
   4:../source/tinyUnity/ShaderMaterial.cpp ****  *  Created on: 2013-06-15
   5:../source/tinyUnity/ShaderMaterial.cpp ****  *      Author: awiebe
   6:../source/tinyUnity/ShaderMaterial.cpp ****  */
   7:../source/tinyUnity/ShaderMaterial.cpp **** 
   8:../source/tinyUnity/ShaderMaterial.cpp **** #include "ShaderMaterial.h"
   9:../source/tinyUnity/ShaderMaterial.cpp **** namespace tinyUnity{
  10:../source/tinyUnity/ShaderMaterial.cpp **** ShaderMaterial::ShaderMaterial() {
  11:../source/tinyUnity/ShaderMaterial.cpp **** 	// TODO Auto-generated constructor stub
  12:../source/tinyUnity/ShaderMaterial.cpp **** 
  13:../source/tinyUnity/ShaderMaterial.cpp **** }
  14:../source/tinyUnity/ShaderMaterial.cpp **** 
  15:../source/tinyUnity/ShaderMaterial.cpp **** ShaderMaterial::~ShaderMaterial() {
  22              		.loc 1 15 0
  23              		.cfi_startproc
  24              		@ Function supports interworking.
  25              		@ args = 0, pretend = 0, frame = 0
  26              		@ frame_needed = 0, uses_anonymous_args = 0
  27              	.LVL0:
  28 0000 10402DE9 		stmfd	sp!, {r4, lr}
  29              	.LCFI0:
  30              		.cfi_def_cfa_offset 8
  31              		.cfi_offset 4, -8
  32              		.cfi_offset 14, -4
  33              	.LBB2:
  34              		.loc 1 15 0
  35 0004 14309FE5 		ldr	r3, .L2
  36              	.LBE2:
  37 0008 0040A0E1 		mov	r4, r0
  38              	.LBB3:
  39 000c 003080E5 		str	r3, [r0]
  16:../source/tinyUnity/ShaderMaterial.cpp **** 	// TODO Auto-generated destructor stub
  17:../source/tinyUnity/ShaderMaterial.cpp **** }
  40              		.loc 1 17 0
  41 0010 FEFFFFEB 		bl	_ZN8MaterialD2Ev
  42              	.LVL1:
  43              	.LBE3:
  44 0014 0400A0E1 		mov	r0, r4
  45 0018 1040BDE8 		ldmfd	sp!, {r4, lr}
  46              	.LVL2:
  47 001c 1EFF2FE1 		bx	lr
  48              	.L3:
  49              		.align	2
  50              	.L2:
  51 0020 08000000 		.word	.LANCHOR0+8
  52              		.cfi_endproc
  53              	.LFE4:
  55              		.global	_ZN9tinyUnity14ShaderMaterialD1Ev
  56              		.set	_ZN9tinyUnity14ShaderMaterialD1Ev,_ZN9tinyUnity14ShaderMaterialD2Ev
  57              		.align	2
  58              		.global	_ZN9tinyUnity14ShaderMaterialD0Ev
  60              	_ZN9tinyUnity14ShaderMaterialD0Ev:
  61              	.LFB6:
  15:../source/tinyUnity/ShaderMaterial.cpp **** 	// TODO Auto-generated destructor stub
  62              		.loc 1 15 0
  63              		.cfi_startproc
  64              		@ Function supports interworking.
  65              		@ args = 0, pretend = 0, frame = 0
  66              		@ frame_needed = 0, uses_anonymous_args = 0
  67              	.LVL3:
  68 0024 10402DE9 		stmfd	sp!, {r4, lr}
  69              	.LCFI1:
  70              		.cfi_def_cfa_offset 8
  71              		.cfi_offset 4, -8
  72              		.cfi_offset 14, -4
  15:../source/tinyUnity/ShaderMaterial.cpp **** 	// TODO Auto-generated destructor stub
  73              		.loc 1 15 0
  74 0028 0040A0E1 		mov	r4, r0
  75              		.loc 1 17 0
  76 002c FEFFFFEB 		bl	_ZN9tinyUnity14ShaderMaterialD1Ev
  77              	.LVL4:
  78 0030 0400A0E1 		mov	r0, r4
  79 0034 FEFFFFEB 		bl	_ZdlPv
  80              	.LVL5:
  81 0038 0400A0E1 		mov	r0, r4
  82 003c 1040BDE8 		ldmfd	sp!, {r4, lr}
  83              	.LVL6:
  84 0040 1EFF2FE1 		bx	lr
  85              		.cfi_endproc
  86              	.LFE6:
  88              		.align	2
  89              		.global	_ZN9tinyUnity14ShaderMaterialC2Ev
  91              	_ZN9tinyUnity14ShaderMaterialC2Ev:
  92              	.LFB1:
  10:../source/tinyUnity/ShaderMaterial.cpp **** 	// TODO Auto-generated constructor stub
  93              		.loc 1 10 0
  94              		.cfi_startproc
  95              		@ Function supports interworking.
  96              		@ args = 0, pretend = 0, frame = 0
  97              		@ frame_needed = 0, uses_anonymous_args = 0
  98              	.LVL7:
  99 0044 10402DE9 		stmfd	sp!, {r4, lr}
 100              	.LCFI2:
 101              		.cfi_def_cfa_offset 8
 102              		.cfi_offset 4, -8
 103              		.cfi_offset 14, -4
  10:../source/tinyUnity/ShaderMaterial.cpp **** 	// TODO Auto-generated constructor stub
 104              		.loc 1 10 0
 105 0048 0040A0E1 		mov	r4, r0
 106              	.LBB4:
 107 004c FEFFFFEB 		bl	_ZN8MaterialC2Ev
 108              	.LVL8:
 109 0050 0C309FE5 		ldr	r3, .L6
 110              	.LBE4:
  13:../source/tinyUnity/ShaderMaterial.cpp **** 
 111              		.loc 1 13 0
 112 0054 0400A0E1 		mov	r0, r4
 113              	.LBB5:
  10:../source/tinyUnity/ShaderMaterial.cpp **** 	// TODO Auto-generated constructor stub
 114              		.loc 1 10 0
 115 0058 003084E5 		str	r3, [r4]
 116              	.LBE5:
  13:../source/tinyUnity/ShaderMaterial.cpp **** 
 117              		.loc 1 13 0
 118 005c 1040BDE8 		ldmfd	sp!, {r4, lr}
 119              	.LVL9:
 120 0060 1EFF2FE1 		bx	lr
 121              	.L7:
 122              		.align	2
 123              	.L6:
 124 0064 08000000 		.word	.LANCHOR0+8
 125              		.cfi_endproc
 126              	.LFE1:
 128              		.global	_ZN9tinyUnity14ShaderMaterialC1Ev
 129              		.set	_ZN9tinyUnity14ShaderMaterialC1Ev,_ZN9tinyUnity14ShaderMaterialC2Ev
 130              		.global	_ZTVN9tinyUnity14ShaderMaterialE
 131              		.section	.rodata
 132              		.align	3
 133              		.set	.LANCHOR0,. + 0
 136              	_ZTVN9tinyUnity14ShaderMaterialE:
 137 0000 00000000 		.word	0
 138 0004 00000000 		.word	0
 139 0008 00000000 		.word	_ZN9tinyUnity14ShaderMaterialD1Ev
 140 000c 00000000 		.word	_ZN9tinyUnity14ShaderMaterialD0Ev
 141 0010 00000000 		.word	_ZN8Material7executeEv
 142 0014 00000000 		.text
 143              	.Letext0:
 144              		.file 2 "../source/tinyUnity/ShaderMaterial.h"