   1              		.cpu arm9
   2              		.fpu softvfp
   3              		.eabi_attribute 20, 1
   4              		.eabi_attribute 21, 1
   5              		.eabi_attribute 23, 3
   6              		.eabi_attribute 24, 1
   7              		.eabi_attribute 25, 1
   8              		.eabi_attribute 26, 1
   9              		.eabi_attribute 30, 4
  10              		.eabi_attribute 34, 0
  11              		.eabi_attribute 18, 4
  12              		.file	"SphereCollider.cpp"
  13              		.text
  14              	.Ltext0:
  15              		.cfi_sections	.debug_frame
  16              		.align	2
  17              		.global	_ZN9tinyUnity14SphereColliderD2Ev
  19              	_ZN9tinyUnity14SphereColliderD2Ev:
  20              	.LFB192:
  21              		.file 1 "../source/tinyUnity/physics/SphereCollider.cpp"
   1:../source/tinyUnity/physics/SphereCollider.cpp **** /*
   2:../source/tinyUnity/physics/SphereCollider.cpp ****  * SphereCollider.cpp
   3:../source/tinyUnity/physics/SphereCollider.cpp ****  *
   4:../source/tinyUnity/physics/SphereCollider.cpp ****  *  Created on: Aug 31, 2014
   5:../source/tinyUnity/physics/SphereCollider.cpp ****  *      Author: awiebe
   6:../source/tinyUnity/physics/SphereCollider.cpp ****  */
   7:../source/tinyUnity/physics/SphereCollider.cpp **** 
   8:../source/tinyUnity/physics/SphereCollider.cpp **** #include "SphereCollider.h"
   9:../source/tinyUnity/physics/SphereCollider.cpp **** 
  10:../source/tinyUnity/physics/SphereCollider.cpp **** namespace tinyUnity {
  11:../source/tinyUnity/physics/SphereCollider.cpp **** 
  12:../source/tinyUnity/physics/SphereCollider.cpp **** SphereCollider::SphereCollider() {
  13:../source/tinyUnity/physics/SphereCollider.cpp **** 	// TODO Auto-generated constructor stub
  14:../source/tinyUnity/physics/SphereCollider.cpp **** 
  15:../source/tinyUnity/physics/SphereCollider.cpp **** }
  16:../source/tinyUnity/physics/SphereCollider.cpp **** 
  17:../source/tinyUnity/physics/SphereCollider.cpp **** SphereCollider::~SphereCollider() {
  22              		.loc 1 17 0
  23              		.cfi_startproc
  24              		@ Function supports interworking.
  25              		@ args = 0, pretend = 0, frame = 0
  26              		@ frame_needed = 0, uses_anonymous_args = 0
  27              	.LVL0:
  28 0000 10402DE9 		stmfd	sp!, {r4, lr}
  29              	.LCFI0:
  30              		.cfi_def_cfa_offset 8
  31              		.cfi_offset 4, -8
  32              		.cfi_offset 14, -4
  33              	.LBB2:
  34              		.loc 1 17 0
  35 0004 14309FE5 		ldr	r3, .L2
  36              	.LBE2:
  37 0008 0040A0E1 		mov	r4, r0
  38              	.LBB3:
  39 000c 003080E5 		str	r3, [r0]
  18:../source/tinyUnity/physics/SphereCollider.cpp **** 	// TODO Auto-generated destructor stub
  19:../source/tinyUnity/physics/SphereCollider.cpp **** }
  40              		.loc 1 19 0
  41 0010 FEFFFFEB 		bl	_ZN9tinyUnity8ColliderD2Ev
  42              	.LVL1:
  43              	.LBE3:
  44 0014 0400A0E1 		mov	r0, r4
  45 0018 1040BDE8 		ldmfd	sp!, {r4, lr}
  46              	.LVL2:
  47 001c 1EFF2FE1 		bx	lr
  48              	.L3:
  49              		.align	2
  50              	.L2:
  51 0020 08000000 		.word	.LANCHOR0+8
  52              		.cfi_endproc
  53              	.LFE192:
  55              		.global	_ZN9tinyUnity14SphereColliderD1Ev
  56              		.set	_ZN9tinyUnity14SphereColliderD1Ev,_ZN9tinyUnity14SphereColliderD2Ev
  57              		.align	2
  58              		.global	_ZN9tinyUnity14SphereColliderD0Ev
  60              	_ZN9tinyUnity14SphereColliderD0Ev:
  61              	.LFB194:
  17:../source/tinyUnity/physics/SphereCollider.cpp **** 	// TODO Auto-generated destructor stub
  62              		.loc 1 17 0
  63              		.cfi_startproc
  64              		@ Function supports interworking.
  65              		@ args = 0, pretend = 0, frame = 0
  66              		@ frame_needed = 0, uses_anonymous_args = 0
  67              	.LVL3:
  68 0024 10402DE9 		stmfd	sp!, {r4, lr}
  69              	.LCFI1:
  70              		.cfi_def_cfa_offset 8
  71              		.cfi_offset 4, -8
  72              		.cfi_offset 14, -4
  17:../source/tinyUnity/physics/SphereCollider.cpp **** 	// TODO Auto-generated destructor stub
  73              		.loc 1 17 0
  74 0028 0040A0E1 		mov	r4, r0
  75              		.loc 1 19 0
  76 002c FEFFFFEB 		bl	_ZN9tinyUnity14SphereColliderD1Ev
  77              	.LVL4:
  78 0030 0400A0E1 		mov	r0, r4
  79 0034 FEFFFFEB 		bl	_ZdlPv
  80              	.LVL5:
  81 0038 0400A0E1 		mov	r0, r4
  82 003c 1040BDE8 		ldmfd	sp!, {r4, lr}
  83              	.LVL6:
  84 0040 1EFF2FE1 		bx	lr
  85              		.cfi_endproc
  86              	.LFE194:
  88              		.align	2
  89              		.global	_ZN9tinyUnity14SphereColliderC2Ev
  91              	_ZN9tinyUnity14SphereColliderC2Ev:
  92              	.LFB189:
  12:../source/tinyUnity/physics/SphereCollider.cpp **** 	// TODO Auto-generated constructor stub
  93              		.loc 1 12 0
  94              		.cfi_startproc
  95              		@ Function supports interworking.
  96              		@ args = 0, pretend = 0, frame = 0
  97              		@ frame_needed = 0, uses_anonymous_args = 0
  98              	.LVL7:
  99 0044 10402DE9 		stmfd	sp!, {r4, lr}
 100              	.LCFI2:
 101              		.cfi_def_cfa_offset 8
 102              		.cfi_offset 4, -8
 103              		.cfi_offset 14, -4
  12:../source/tinyUnity/physics/SphereCollider.cpp **** 	// TODO Auto-generated constructor stub
 104              		.loc 1 12 0
 105 0048 0040A0E1 		mov	r4, r0
 106              	.LBB4:
 107 004c FEFFFFEB 		bl	_ZN9tinyUnity8ColliderC2Ev
 108              	.LVL8:
 109 0050 0C309FE5 		ldr	r3, .L6
 110              	.LBE4:
  15:../source/tinyUnity/physics/SphereCollider.cpp **** 
 111              		.loc 1 15 0
 112 0054 0400A0E1 		mov	r0, r4
 113              	.LBB5:
  12:../source/tinyUnity/physics/SphereCollider.cpp **** 	// TODO Auto-generated constructor stub
 114              		.loc 1 12 0
 115 0058 003084E5 		str	r3, [r4]
 116              	.LBE5:
  15:../source/tinyUnity/physics/SphereCollider.cpp **** 
 117              		.loc 1 15 0
 118 005c 1040BDE8 		ldmfd	sp!, {r4, lr}
 119              	.LVL9:
 120 0060 1EFF2FE1 		bx	lr
 121              	.L7:
 122              		.align	2
 123              	.L6:
 124 0064 08000000 		.word	.LANCHOR0+8
 125              		.cfi_endproc
 126              	.LFE189:
 128              		.global	_ZN9tinyUnity14SphereColliderC1Ev
 129              		.set	_ZN9tinyUnity14SphereColliderC1Ev,_ZN9tinyUnity14SphereColliderC2Ev
 130              		.global	_ZTVN9tinyUnity14SphereColliderE
 131              		.section	.rodata
 132              		.align	3
 133              		.set	.LANCHOR0,. + 0
 136              	_ZTVN9tinyUnity14SphereColliderE:
 137 0000 00000000 		.word	0
 138 0004 00000000 		.word	0
 139 0008 00000000 		.word	_ZN9tinyUnity9Component11fixedUpdateEv
 140 000c 00000000 		.word	_ZN9tinyUnity9Component6updateEv
 141 0010 00000000 		.word	_ZN9tinyUnity9Component5awakeEv
 142 0014 00000000 		.word	_ZN9tinyUnity9Component16onCollisionEnterEv
 143 0018 00000000 		.word	_ZN9tinyUnity9Component15onCollisionExitEv
 144 001c 00000000 		.word	_ZN9tinyUnity14SphereColliderD1Ev
 145 0020 00000000 		.word	_ZN9tinyUnity14SphereColliderD0Ev
 146 0024 00000000 		.text
 147              	.Letext0:
 148              		.file 2 "/Users/awiebe/devkitPro/devkitARM/arm-none-eabi/include/machine/_default_types.h"
 149              		.file 3 "/Users/awiebe/devkitPro/devkitARM/arm-none-eabi/include/stdint.h"
 150              		.file 4 "/Users/awiebe/devkitPro/libnds/include/nds/ndstypes.h"
 151              		.file 5 "/Users/awiebe/devkitPro/libnds/include/nds/arm9/dynamicArray.h"
 152              		.file 6 "/Users/awiebe/devkitPro/libnds/include/nds/arm9/background.h"
 153              		.file 7 "/Users/awiebe/devkitPro/libnds/include/nds/arm9/videoGL.h"
 154              		.file 8 "/Users/awiebe/devkitPro/libnds/include/nds/arm9/sprite.h"
 155              		.file 9 "../source/tinyUnity/physics/SphereCollider.h"
 156              		.file 10 "../source/tinyUnity/physics/Collider.h"
 157              		.file 11 "/Users/awiebe/devkitPro/libnds/include/nds/arm9/video.h"
 158              		.file 12 "../source/tinyUnity/physics/../Command.h"