   1              		.cpu arm9
   2              		.fpu softvfp
   3              		.eabi_attribute 20, 1
   4              		.eabi_attribute 21, 1
   5              		.eabi_attribute 23, 3
   6              		.eabi_attribute 24, 1
   7              		.eabi_attribute 25, 1
   8              		.eabi_attribute 26, 1
   9              		.eabi_attribute 30, 6
  10              		.eabi_attribute 34, 0
  11              		.eabi_attribute 18, 4
  12              		.file	"Debug.cpp"
  13              		.text
  14              	.Ltext0:
  15              		.cfi_sections	.debug_frame
  16              		.section	.rodata
  17              		.align	2
  20              	_ZStL19piecewise_construct:
  21 0000 00       		.space	1
  22 0001 000000   		.text
  23              		.align	2
  25              	_ZL20__gthread_key_deletei:
  26              	.LFB312:
  27              		.file 1 "/Users/awiebe/devkitPro/devkitARM/arm-none-eabi/include/c++/4.8.2/arm-none-eabi/bits/gthr
   1:/Users/awiebe/devkitPro/devkitARM/arm-none-eabi/include/c++/4.8.2/arm-none-eabi/bits/gthr-default.h **** /* Threads compatibility routines for libgcc2 and libobjc.  */
   2:/Users/awiebe/devkitPro/devkitARM/arm-none-eabi/include/c++/4.8.2/arm-none-eabi/bits/gthr-default.h **** /* Compile this one with gcc.  */
   3:/Users/awiebe/devkitPro/devkitARM/arm-none-eabi/include/c++/4.8.2/arm-none-eabi/bits/gthr-default.h **** /* Copyright (C) 1997-2013 Free Software Foundation, Inc.
   4:/Users/awiebe/devkitPro/devkitARM/arm-none-eabi/include/c++/4.8.2/arm-none-eabi/bits/gthr-default.h **** 
   5:/Users/awiebe/devkitPro/devkitARM/arm-none-eabi/include/c++/4.8.2/arm-none-eabi/bits/gthr-default.h **** This file is part of GCC.
   6:/Users/awiebe/devkitPro/devkitARM/arm-none-eabi/include/c++/4.8.2/arm-none-eabi/bits/gthr-default.h **** 
   7:/Users/awiebe/devkitPro/devkitARM/arm-none-eabi/include/c++/4.8.2/arm-none-eabi/bits/gthr-default.h **** GCC is free software; you can redistribute it and/or modify it under
   8:/Users/awiebe/devkitPro/devkitARM/arm-none-eabi/include/c++/4.8.2/arm-none-eabi/bits/gthr-default.h **** the terms of the GNU General Public License as published by the Free
   9:/Users/awiebe/devkitPro/devkitARM/arm-none-eabi/include/c++/4.8.2/arm-none-eabi/bits/gthr-default.h **** Software Foundation; either version 3, or (at your option) any later
  10:/Users/awiebe/devkitPro/devkitARM/arm-none-eabi/include/c++/4.8.2/arm-none-eabi/bits/gthr-default.h **** version.
  11:/Users/awiebe/devkitPro/devkitARM/arm-none-eabi/include/c++/4.8.2/arm-none-eabi/bits/gthr-default.h **** 
  12:/Users/awiebe/devkitPro/devkitARM/arm-none-eabi/include/c++/4.8.2/arm-none-eabi/bits/gthr-default.h **** GCC is distributed in the hope that it will be useful, but WITHOUT ANY
  13:/Users/awiebe/devkitPro/devkitARM/arm-none-eabi/include/c++/4.8.2/arm-none-eabi/bits/gthr-default.h **** WARRANTY; without even the implied warranty of MERCHANTABILITY or
  14:/Users/awiebe/devkitPro/devkitARM/arm-none-eabi/include/c++/4.8.2/arm-none-eabi/bits/gthr-default.h **** FITNESS FOR A PARTICULAR PURPOSE.  See the GNU General Public License
  15:/Users/awiebe/devkitPro/devkitARM/arm-none-eabi/include/c++/4.8.2/arm-none-eabi/bits/gthr-default.h **** for more details.
  16:/Users/awiebe/devkitPro/devkitARM/arm-none-eabi/include/c++/4.8.2/arm-none-eabi/bits/gthr-default.h **** 
  17:/Users/awiebe/devkitPro/devkitARM/arm-none-eabi/include/c++/4.8.2/arm-none-eabi/bits/gthr-default.h **** Under Section 7 of GPL version 3, you are granted additional
  18:/Users/awiebe/devkitPro/devkitARM/arm-none-eabi/include/c++/4.8.2/arm-none-eabi/bits/gthr-default.h **** permissions described in the GCC Runtime Library Exception, version
  19:/Users/awiebe/devkitPro/devkitARM/arm-none-eabi/include/c++/4.8.2/arm-none-eabi/bits/gthr-default.h **** 3.1, as published by the Free Software Foundation.
  20:/Users/awiebe/devkitPro/devkitARM/arm-none-eabi/include/c++/4.8.2/arm-none-eabi/bits/gthr-default.h **** 
  21:/Users/awiebe/devkitPro/devkitARM/arm-none-eabi/include/c++/4.8.2/arm-none-eabi/bits/gthr-default.h **** You should have received a copy of the GNU General Public License and
  22:/Users/awiebe/devkitPro/devkitARM/arm-none-eabi/include/c++/4.8.2/arm-none-eabi/bits/gthr-default.h **** a copy of the GCC Runtime Library Exception along with this program;
  23:/Users/awiebe/devkitPro/devkitARM/arm-none-eabi/include/c++/4.8.2/arm-none-eabi/bits/gthr-default.h **** see the files COPYING3 and COPYING.RUNTIME respectively.  If not, see
  24:/Users/awiebe/devkitPro/devkitARM/arm-none-eabi/include/c++/4.8.2/arm-none-eabi/bits/gthr-default.h **** <http://www.gnu.org/licenses/>.  */
  25:/Users/awiebe/devkitPro/devkitARM/arm-none-eabi/include/c++/4.8.2/arm-none-eabi/bits/gthr-default.h **** 
  26:/Users/awiebe/devkitPro/devkitARM/arm-none-eabi/include/c++/4.8.2/arm-none-eabi/bits/gthr-default.h **** #ifndef _GLIBCXX_GCC_GTHR_SINGLE_H
  27:/Users/awiebe/devkitPro/devkitARM/arm-none-eabi/include/c++/4.8.2/arm-none-eabi/bits/gthr-default.h **** #define _GLIBCXX_GCC_GTHR_SINGLE_H
  28:/Users/awiebe/devkitPro/devkitARM/arm-none-eabi/include/c++/4.8.2/arm-none-eabi/bits/gthr-default.h **** 
  29:/Users/awiebe/devkitPro/devkitARM/arm-none-eabi/include/c++/4.8.2/arm-none-eabi/bits/gthr-default.h **** /* Just provide compatibility for mutex handling.  */
  30:/Users/awiebe/devkitPro/devkitARM/arm-none-eabi/include/c++/4.8.2/arm-none-eabi/bits/gthr-default.h **** 
  31:/Users/awiebe/devkitPro/devkitARM/arm-none-eabi/include/c++/4.8.2/arm-none-eabi/bits/gthr-default.h **** typedef int __gthread_key_t;
  32:/Users/awiebe/devkitPro/devkitARM/arm-none-eabi/include/c++/4.8.2/arm-none-eabi/bits/gthr-default.h **** typedef int __gthread_once_t;
  33:/Users/awiebe/devkitPro/devkitARM/arm-none-eabi/include/c++/4.8.2/arm-none-eabi/bits/gthr-default.h **** typedef int __gthread_mutex_t;
  34:/Users/awiebe/devkitPro/devkitARM/arm-none-eabi/include/c++/4.8.2/arm-none-eabi/bits/gthr-default.h **** typedef int __gthread_recursive_mutex_t;
  35:/Users/awiebe/devkitPro/devkitARM/arm-none-eabi/include/c++/4.8.2/arm-none-eabi/bits/gthr-default.h **** 
  36:/Users/awiebe/devkitPro/devkitARM/arm-none-eabi/include/c++/4.8.2/arm-none-eabi/bits/gthr-default.h **** #define __GTHREAD_ONCE_INIT 0
  37:/Users/awiebe/devkitPro/devkitARM/arm-none-eabi/include/c++/4.8.2/arm-none-eabi/bits/gthr-default.h **** #define __GTHREAD_MUTEX_INIT 0
  38:/Users/awiebe/devkitPro/devkitARM/arm-none-eabi/include/c++/4.8.2/arm-none-eabi/bits/gthr-default.h **** #define __GTHREAD_MUTEX_INIT_FUNCTION(mx)
  39:/Users/awiebe/devkitPro/devkitARM/arm-none-eabi/include/c++/4.8.2/arm-none-eabi/bits/gthr-default.h **** #define __GTHREAD_RECURSIVE_MUTEX_INIT 0
  40:/Users/awiebe/devkitPro/devkitARM/arm-none-eabi/include/c++/4.8.2/arm-none-eabi/bits/gthr-default.h **** 
  41:/Users/awiebe/devkitPro/devkitARM/arm-none-eabi/include/c++/4.8.2/arm-none-eabi/bits/gthr-default.h **** #define _GLIBCXX_UNUSED __attribute__((unused))
  42:/Users/awiebe/devkitPro/devkitARM/arm-none-eabi/include/c++/4.8.2/arm-none-eabi/bits/gthr-default.h **** 
  43:/Users/awiebe/devkitPro/devkitARM/arm-none-eabi/include/c++/4.8.2/arm-none-eabi/bits/gthr-default.h **** #ifdef _LIBOBJC
  44:/Users/awiebe/devkitPro/devkitARM/arm-none-eabi/include/c++/4.8.2/arm-none-eabi/bits/gthr-default.h **** 
  45:/Users/awiebe/devkitPro/devkitARM/arm-none-eabi/include/c++/4.8.2/arm-none-eabi/bits/gthr-default.h **** /* Thread local storage for a single thread */
  46:/Users/awiebe/devkitPro/devkitARM/arm-none-eabi/include/c++/4.8.2/arm-none-eabi/bits/gthr-default.h **** static void *thread_local_storage = NULL;
  47:/Users/awiebe/devkitPro/devkitARM/arm-none-eabi/include/c++/4.8.2/arm-none-eabi/bits/gthr-default.h **** 
  48:/Users/awiebe/devkitPro/devkitARM/arm-none-eabi/include/c++/4.8.2/arm-none-eabi/bits/gthr-default.h **** /* Backend initialization functions */
  49:/Users/awiebe/devkitPro/devkitARM/arm-none-eabi/include/c++/4.8.2/arm-none-eabi/bits/gthr-default.h **** 
  50:/Users/awiebe/devkitPro/devkitARM/arm-none-eabi/include/c++/4.8.2/arm-none-eabi/bits/gthr-default.h **** /* Initialize the threads subsystem.  */
  51:/Users/awiebe/devkitPro/devkitARM/arm-none-eabi/include/c++/4.8.2/arm-none-eabi/bits/gthr-default.h **** static inline int
  52:/Users/awiebe/devkitPro/devkitARM/arm-none-eabi/include/c++/4.8.2/arm-none-eabi/bits/gthr-default.h **** __gthread_objc_init_thread_system (void)
  53:/Users/awiebe/devkitPro/devkitARM/arm-none-eabi/include/c++/4.8.2/arm-none-eabi/bits/gthr-default.h **** {
  54:/Users/awiebe/devkitPro/devkitARM/arm-none-eabi/include/c++/4.8.2/arm-none-eabi/bits/gthr-default.h ****   /* No thread support available */
  55:/Users/awiebe/devkitPro/devkitARM/arm-none-eabi/include/c++/4.8.2/arm-none-eabi/bits/gthr-default.h ****   return -1;
  56:/Users/awiebe/devkitPro/devkitARM/arm-none-eabi/include/c++/4.8.2/arm-none-eabi/bits/gthr-default.h **** }
  57:/Users/awiebe/devkitPro/devkitARM/arm-none-eabi/include/c++/4.8.2/arm-none-eabi/bits/gthr-default.h **** 
  58:/Users/awiebe/devkitPro/devkitARM/arm-none-eabi/include/c++/4.8.2/arm-none-eabi/bits/gthr-default.h **** /* Close the threads subsystem.  */
  59:/Users/awiebe/devkitPro/devkitARM/arm-none-eabi/include/c++/4.8.2/arm-none-eabi/bits/gthr-default.h **** static inline int
  60:/Users/awiebe/devkitPro/devkitARM/arm-none-eabi/include/c++/4.8.2/arm-none-eabi/bits/gthr-default.h **** __gthread_objc_close_thread_system (void)
  61:/Users/awiebe/devkitPro/devkitARM/arm-none-eabi/include/c++/4.8.2/arm-none-eabi/bits/gthr-default.h **** {
  62:/Users/awiebe/devkitPro/devkitARM/arm-none-eabi/include/c++/4.8.2/arm-none-eabi/bits/gthr-default.h ****   /* No thread support available */
  63:/Users/awiebe/devkitPro/devkitARM/arm-none-eabi/include/c++/4.8.2/arm-none-eabi/bits/gthr-default.h ****   return -1;
  64:/Users/awiebe/devkitPro/devkitARM/arm-none-eabi/include/c++/4.8.2/arm-none-eabi/bits/gthr-default.h **** }
  65:/Users/awiebe/devkitPro/devkitARM/arm-none-eabi/include/c++/4.8.2/arm-none-eabi/bits/gthr-default.h **** 
  66:/Users/awiebe/devkitPro/devkitARM/arm-none-eabi/include/c++/4.8.2/arm-none-eabi/bits/gthr-default.h **** /* Backend thread functions */
  67:/Users/awiebe/devkitPro/devkitARM/arm-none-eabi/include/c++/4.8.2/arm-none-eabi/bits/gthr-default.h **** 
  68:/Users/awiebe/devkitPro/devkitARM/arm-none-eabi/include/c++/4.8.2/arm-none-eabi/bits/gthr-default.h **** /* Create a new thread of execution.  */
  69:/Users/awiebe/devkitPro/devkitARM/arm-none-eabi/include/c++/4.8.2/arm-none-eabi/bits/gthr-default.h **** static inline objc_thread_t
  70:/Users/awiebe/devkitPro/devkitARM/arm-none-eabi/include/c++/4.8.2/arm-none-eabi/bits/gthr-default.h **** __gthread_objc_thread_detach (void (* func)(void *), void * arg _GLIBCXX_UNUSED)
  71:/Users/awiebe/devkitPro/devkitARM/arm-none-eabi/include/c++/4.8.2/arm-none-eabi/bits/gthr-default.h **** {
  72:/Users/awiebe/devkitPro/devkitARM/arm-none-eabi/include/c++/4.8.2/arm-none-eabi/bits/gthr-default.h ****   /* No thread support available */
  73:/Users/awiebe/devkitPro/devkitARM/arm-none-eabi/include/c++/4.8.2/arm-none-eabi/bits/gthr-default.h ****   return NULL;
  74:/Users/awiebe/devkitPro/devkitARM/arm-none-eabi/include/c++/4.8.2/arm-none-eabi/bits/gthr-default.h **** }
  75:/Users/awiebe/devkitPro/devkitARM/arm-none-eabi/include/c++/4.8.2/arm-none-eabi/bits/gthr-default.h **** 
  76:/Users/awiebe/devkitPro/devkitARM/arm-none-eabi/include/c++/4.8.2/arm-none-eabi/bits/gthr-default.h **** /* Set the current thread's priority.  */
  77:/Users/awiebe/devkitPro/devkitARM/arm-none-eabi/include/c++/4.8.2/arm-none-eabi/bits/gthr-default.h **** static inline int
  78:/Users/awiebe/devkitPro/devkitARM/arm-none-eabi/include/c++/4.8.2/arm-none-eabi/bits/gthr-default.h **** __gthread_objc_thread_set_priority (int priority _GLIBCXX_UNUSED)
  79:/Users/awiebe/devkitPro/devkitARM/arm-none-eabi/include/c++/4.8.2/arm-none-eabi/bits/gthr-default.h **** {
  80:/Users/awiebe/devkitPro/devkitARM/arm-none-eabi/include/c++/4.8.2/arm-none-eabi/bits/gthr-default.h ****   /* No thread support available */
  81:/Users/awiebe/devkitPro/devkitARM/arm-none-eabi/include/c++/4.8.2/arm-none-eabi/bits/gthr-default.h ****   return -1;
  82:/Users/awiebe/devkitPro/devkitARM/arm-none-eabi/include/c++/4.8.2/arm-none-eabi/bits/gthr-default.h **** }
  83:/Users/awiebe/devkitPro/devkitARM/arm-none-eabi/include/c++/4.8.2/arm-none-eabi/bits/gthr-default.h **** 
  84:/Users/awiebe/devkitPro/devkitARM/arm-none-eabi/include/c++/4.8.2/arm-none-eabi/bits/gthr-default.h **** /* Return the current thread's priority.  */
  85:/Users/awiebe/devkitPro/devkitARM/arm-none-eabi/include/c++/4.8.2/arm-none-eabi/bits/gthr-default.h **** static inline int
  86:/Users/awiebe/devkitPro/devkitARM/arm-none-eabi/include/c++/4.8.2/arm-none-eabi/bits/gthr-default.h **** __gthread_objc_thread_get_priority (void)
  87:/Users/awiebe/devkitPro/devkitARM/arm-none-eabi/include/c++/4.8.2/arm-none-eabi/bits/gthr-default.h **** {
  88:/Users/awiebe/devkitPro/devkitARM/arm-none-eabi/include/c++/4.8.2/arm-none-eabi/bits/gthr-default.h ****   return OBJC_THREAD_INTERACTIVE_PRIORITY;
  89:/Users/awiebe/devkitPro/devkitARM/arm-none-eabi/include/c++/4.8.2/arm-none-eabi/bits/gthr-default.h **** }
  90:/Users/awiebe/devkitPro/devkitARM/arm-none-eabi/include/c++/4.8.2/arm-none-eabi/bits/gthr-default.h **** 
  91:/Users/awiebe/devkitPro/devkitARM/arm-none-eabi/include/c++/4.8.2/arm-none-eabi/bits/gthr-default.h **** /* Yield our process time to another thread.  */
  92:/Users/awiebe/devkitPro/devkitARM/arm-none-eabi/include/c++/4.8.2/arm-none-eabi/bits/gthr-default.h **** static inline void
  93:/Users/awiebe/devkitPro/devkitARM/arm-none-eabi/include/c++/4.8.2/arm-none-eabi/bits/gthr-default.h **** __gthread_objc_thread_yield (void)
  94:/Users/awiebe/devkitPro/devkitARM/arm-none-eabi/include/c++/4.8.2/arm-none-eabi/bits/gthr-default.h **** {
  95:/Users/awiebe/devkitPro/devkitARM/arm-none-eabi/include/c++/4.8.2/arm-none-eabi/bits/gthr-default.h ****   return;
  96:/Users/awiebe/devkitPro/devkitARM/arm-none-eabi/include/c++/4.8.2/arm-none-eabi/bits/gthr-default.h **** }
  97:/Users/awiebe/devkitPro/devkitARM/arm-none-eabi/include/c++/4.8.2/arm-none-eabi/bits/gthr-default.h **** 
  98:/Users/awiebe/devkitPro/devkitARM/arm-none-eabi/include/c++/4.8.2/arm-none-eabi/bits/gthr-default.h **** /* Terminate the current thread.  */
  99:/Users/awiebe/devkitPro/devkitARM/arm-none-eabi/include/c++/4.8.2/arm-none-eabi/bits/gthr-default.h **** static inline int
 100:/Users/awiebe/devkitPro/devkitARM/arm-none-eabi/include/c++/4.8.2/arm-none-eabi/bits/gthr-default.h **** __gthread_objc_thread_exit (void)
 101:/Users/awiebe/devkitPro/devkitARM/arm-none-eabi/include/c++/4.8.2/arm-none-eabi/bits/gthr-default.h **** {
 102:/Users/awiebe/devkitPro/devkitARM/arm-none-eabi/include/c++/4.8.2/arm-none-eabi/bits/gthr-default.h ****   /* No thread support available */
 103:/Users/awiebe/devkitPro/devkitARM/arm-none-eabi/include/c++/4.8.2/arm-none-eabi/bits/gthr-default.h ****   /* Should we really exit the program */
 104:/Users/awiebe/devkitPro/devkitARM/arm-none-eabi/include/c++/4.8.2/arm-none-eabi/bits/gthr-default.h ****   /* exit (&__objc_thread_exit_status); */
 105:/Users/awiebe/devkitPro/devkitARM/arm-none-eabi/include/c++/4.8.2/arm-none-eabi/bits/gthr-default.h ****   return -1;
 106:/Users/awiebe/devkitPro/devkitARM/arm-none-eabi/include/c++/4.8.2/arm-none-eabi/bits/gthr-default.h **** }
 107:/Users/awiebe/devkitPro/devkitARM/arm-none-eabi/include/c++/4.8.2/arm-none-eabi/bits/gthr-default.h **** 
 108:/Users/awiebe/devkitPro/devkitARM/arm-none-eabi/include/c++/4.8.2/arm-none-eabi/bits/gthr-default.h **** /* Returns an integer value which uniquely describes a thread.  */
 109:/Users/awiebe/devkitPro/devkitARM/arm-none-eabi/include/c++/4.8.2/arm-none-eabi/bits/gthr-default.h **** static inline objc_thread_t
 110:/Users/awiebe/devkitPro/devkitARM/arm-none-eabi/include/c++/4.8.2/arm-none-eabi/bits/gthr-default.h **** __gthread_objc_thread_id (void)
 111:/Users/awiebe/devkitPro/devkitARM/arm-none-eabi/include/c++/4.8.2/arm-none-eabi/bits/gthr-default.h **** {
 112:/Users/awiebe/devkitPro/devkitARM/arm-none-eabi/include/c++/4.8.2/arm-none-eabi/bits/gthr-default.h ****   /* No thread support, use 1.  */
 113:/Users/awiebe/devkitPro/devkitARM/arm-none-eabi/include/c++/4.8.2/arm-none-eabi/bits/gthr-default.h ****   return (objc_thread_t) 1;
 114:/Users/awiebe/devkitPro/devkitARM/arm-none-eabi/include/c++/4.8.2/arm-none-eabi/bits/gthr-default.h **** }
 115:/Users/awiebe/devkitPro/devkitARM/arm-none-eabi/include/c++/4.8.2/arm-none-eabi/bits/gthr-default.h **** 
 116:/Users/awiebe/devkitPro/devkitARM/arm-none-eabi/include/c++/4.8.2/arm-none-eabi/bits/gthr-default.h **** /* Sets the thread's local storage pointer.  */
 117:/Users/awiebe/devkitPro/devkitARM/arm-none-eabi/include/c++/4.8.2/arm-none-eabi/bits/gthr-default.h **** static inline int
 118:/Users/awiebe/devkitPro/devkitARM/arm-none-eabi/include/c++/4.8.2/arm-none-eabi/bits/gthr-default.h **** __gthread_objc_thread_set_data (void *value)
 119:/Users/awiebe/devkitPro/devkitARM/arm-none-eabi/include/c++/4.8.2/arm-none-eabi/bits/gthr-default.h **** {
 120:/Users/awiebe/devkitPro/devkitARM/arm-none-eabi/include/c++/4.8.2/arm-none-eabi/bits/gthr-default.h ****   thread_local_storage = value;
 121:/Users/awiebe/devkitPro/devkitARM/arm-none-eabi/include/c++/4.8.2/arm-none-eabi/bits/gthr-default.h ****   return 0;
 122:/Users/awiebe/devkitPro/devkitARM/arm-none-eabi/include/c++/4.8.2/arm-none-eabi/bits/gthr-default.h **** }
 123:/Users/awiebe/devkitPro/devkitARM/arm-none-eabi/include/c++/4.8.2/arm-none-eabi/bits/gthr-default.h **** 
 124:/Users/awiebe/devkitPro/devkitARM/arm-none-eabi/include/c++/4.8.2/arm-none-eabi/bits/gthr-default.h **** /* Returns the thread's local storage pointer.  */
 125:/Users/awiebe/devkitPro/devkitARM/arm-none-eabi/include/c++/4.8.2/arm-none-eabi/bits/gthr-default.h **** static inline void *
 126:/Users/awiebe/devkitPro/devkitARM/arm-none-eabi/include/c++/4.8.2/arm-none-eabi/bits/gthr-default.h **** __gthread_objc_thread_get_data (void)
 127:/Users/awiebe/devkitPro/devkitARM/arm-none-eabi/include/c++/4.8.2/arm-none-eabi/bits/gthr-default.h **** {
 128:/Users/awiebe/devkitPro/devkitARM/arm-none-eabi/include/c++/4.8.2/arm-none-eabi/bits/gthr-default.h ****   return thread_local_storage;
 129:/Users/awiebe/devkitPro/devkitARM/arm-none-eabi/include/c++/4.8.2/arm-none-eabi/bits/gthr-default.h **** }
 130:/Users/awiebe/devkitPro/devkitARM/arm-none-eabi/include/c++/4.8.2/arm-none-eabi/bits/gthr-default.h **** 
 131:/Users/awiebe/devkitPro/devkitARM/arm-none-eabi/include/c++/4.8.2/arm-none-eabi/bits/gthr-default.h **** /* Backend mutex functions */
 132:/Users/awiebe/devkitPro/devkitARM/arm-none-eabi/include/c++/4.8.2/arm-none-eabi/bits/gthr-default.h **** 
 133:/Users/awiebe/devkitPro/devkitARM/arm-none-eabi/include/c++/4.8.2/arm-none-eabi/bits/gthr-default.h **** /* Allocate a mutex.  */
 134:/Users/awiebe/devkitPro/devkitARM/arm-none-eabi/include/c++/4.8.2/arm-none-eabi/bits/gthr-default.h **** static inline int
 135:/Users/awiebe/devkitPro/devkitARM/arm-none-eabi/include/c++/4.8.2/arm-none-eabi/bits/gthr-default.h **** __gthread_objc_mutex_allocate (objc_mutex_t mutex _GLIBCXX_UNUSED)
 136:/Users/awiebe/devkitPro/devkitARM/arm-none-eabi/include/c++/4.8.2/arm-none-eabi/bits/gthr-default.h **** {
 137:/Users/awiebe/devkitPro/devkitARM/arm-none-eabi/include/c++/4.8.2/arm-none-eabi/bits/gthr-default.h ****   return 0;
 138:/Users/awiebe/devkitPro/devkitARM/arm-none-eabi/include/c++/4.8.2/arm-none-eabi/bits/gthr-default.h **** }
 139:/Users/awiebe/devkitPro/devkitARM/arm-none-eabi/include/c++/4.8.2/arm-none-eabi/bits/gthr-default.h **** 
 140:/Users/awiebe/devkitPro/devkitARM/arm-none-eabi/include/c++/4.8.2/arm-none-eabi/bits/gthr-default.h **** /* Deallocate a mutex.  */
 141:/Users/awiebe/devkitPro/devkitARM/arm-none-eabi/include/c++/4.8.2/arm-none-eabi/bits/gthr-default.h **** static inline int
 142:/Users/awiebe/devkitPro/devkitARM/arm-none-eabi/include/c++/4.8.2/arm-none-eabi/bits/gthr-default.h **** __gthread_objc_mutex_deallocate (objc_mutex_t mutex _GLIBCXX_UNUSED)
 143:/Users/awiebe/devkitPro/devkitARM/arm-none-eabi/include/c++/4.8.2/arm-none-eabi/bits/gthr-default.h **** {
 144:/Users/awiebe/devkitPro/devkitARM/arm-none-eabi/include/c++/4.8.2/arm-none-eabi/bits/gthr-default.h ****   return 0;
 145:/Users/awiebe/devkitPro/devkitARM/arm-none-eabi/include/c++/4.8.2/arm-none-eabi/bits/gthr-default.h **** }
 146:/Users/awiebe/devkitPro/devkitARM/arm-none-eabi/include/c++/4.8.2/arm-none-eabi/bits/gthr-default.h **** 
 147:/Users/awiebe/devkitPro/devkitARM/arm-none-eabi/include/c++/4.8.2/arm-none-eabi/bits/gthr-default.h **** /* Grab a lock on a mutex.  */
 148:/Users/awiebe/devkitPro/devkitARM/arm-none-eabi/include/c++/4.8.2/arm-none-eabi/bits/gthr-default.h **** static inline int
 149:/Users/awiebe/devkitPro/devkitARM/arm-none-eabi/include/c++/4.8.2/arm-none-eabi/bits/gthr-default.h **** __gthread_objc_mutex_lock (objc_mutex_t mutex _GLIBCXX_UNUSED)
 150:/Users/awiebe/devkitPro/devkitARM/arm-none-eabi/include/c++/4.8.2/arm-none-eabi/bits/gthr-default.h **** {
 151:/Users/awiebe/devkitPro/devkitARM/arm-none-eabi/include/c++/4.8.2/arm-none-eabi/bits/gthr-default.h ****   /* There can only be one thread, so we always get the lock */
 152:/Users/awiebe/devkitPro/devkitARM/arm-none-eabi/include/c++/4.8.2/arm-none-eabi/bits/gthr-default.h ****   return 0;
 153:/Users/awiebe/devkitPro/devkitARM/arm-none-eabi/include/c++/4.8.2/arm-none-eabi/bits/gthr-default.h **** }
 154:/Users/awiebe/devkitPro/devkitARM/arm-none-eabi/include/c++/4.8.2/arm-none-eabi/bits/gthr-default.h **** 
 155:/Users/awiebe/devkitPro/devkitARM/arm-none-eabi/include/c++/4.8.2/arm-none-eabi/bits/gthr-default.h **** /* Try to grab a lock on a mutex.  */
 156:/Users/awiebe/devkitPro/devkitARM/arm-none-eabi/include/c++/4.8.2/arm-none-eabi/bits/gthr-default.h **** static inline int
 157:/Users/awiebe/devkitPro/devkitARM/arm-none-eabi/include/c++/4.8.2/arm-none-eabi/bits/gthr-default.h **** __gthread_objc_mutex_trylock (objc_mutex_t mutex _GLIBCXX_UNUSED)
 158:/Users/awiebe/devkitPro/devkitARM/arm-none-eabi/include/c++/4.8.2/arm-none-eabi/bits/gthr-default.h **** {
 159:/Users/awiebe/devkitPro/devkitARM/arm-none-eabi/include/c++/4.8.2/arm-none-eabi/bits/gthr-default.h ****   /* There can only be one thread, so we always get the lock */
 160:/Users/awiebe/devkitPro/devkitARM/arm-none-eabi/include/c++/4.8.2/arm-none-eabi/bits/gthr-default.h ****   return 0;
 161:/Users/awiebe/devkitPro/devkitARM/arm-none-eabi/include/c++/4.8.2/arm-none-eabi/bits/gthr-default.h **** }
 162:/Users/awiebe/devkitPro/devkitARM/arm-none-eabi/include/c++/4.8.2/arm-none-eabi/bits/gthr-default.h **** 
 163:/Users/awiebe/devkitPro/devkitARM/arm-none-eabi/include/c++/4.8.2/arm-none-eabi/bits/gthr-default.h **** /* Unlock the mutex */
 164:/Users/awiebe/devkitPro/devkitARM/arm-none-eabi/include/c++/4.8.2/arm-none-eabi/bits/gthr-default.h **** static inline int
 165:/Users/awiebe/devkitPro/devkitARM/arm-none-eabi/include/c++/4.8.2/arm-none-eabi/bits/gthr-default.h **** __gthread_objc_mutex_unlock (objc_mutex_t mutex _GLIBCXX_UNUSED)
 166:/Users/awiebe/devkitPro/devkitARM/arm-none-eabi/include/c++/4.8.2/arm-none-eabi/bits/gthr-default.h **** {
 167:/Users/awiebe/devkitPro/devkitARM/arm-none-eabi/include/c++/4.8.2/arm-none-eabi/bits/gthr-default.h ****   return 0;
 168:/Users/awiebe/devkitPro/devkitARM/arm-none-eabi/include/c++/4.8.2/arm-none-eabi/bits/gthr-default.h **** }
 169:/Users/awiebe/devkitPro/devkitARM/arm-none-eabi/include/c++/4.8.2/arm-none-eabi/bits/gthr-default.h **** 
 170:/Users/awiebe/devkitPro/devkitARM/arm-none-eabi/include/c++/4.8.2/arm-none-eabi/bits/gthr-default.h **** /* Backend condition mutex functions */
 171:/Users/awiebe/devkitPro/devkitARM/arm-none-eabi/include/c++/4.8.2/arm-none-eabi/bits/gthr-default.h **** 
 172:/Users/awiebe/devkitPro/devkitARM/arm-none-eabi/include/c++/4.8.2/arm-none-eabi/bits/gthr-default.h **** /* Allocate a condition.  */
 173:/Users/awiebe/devkitPro/devkitARM/arm-none-eabi/include/c++/4.8.2/arm-none-eabi/bits/gthr-default.h **** static inline int
 174:/Users/awiebe/devkitPro/devkitARM/arm-none-eabi/include/c++/4.8.2/arm-none-eabi/bits/gthr-default.h **** __gthread_objc_condition_allocate (objc_condition_t condition _GLIBCXX_UNUSED)
 175:/Users/awiebe/devkitPro/devkitARM/arm-none-eabi/include/c++/4.8.2/arm-none-eabi/bits/gthr-default.h **** {
 176:/Users/awiebe/devkitPro/devkitARM/arm-none-eabi/include/c++/4.8.2/arm-none-eabi/bits/gthr-default.h ****   return 0;
 177:/Users/awiebe/devkitPro/devkitARM/arm-none-eabi/include/c++/4.8.2/arm-none-eabi/bits/gthr-default.h **** }
 178:/Users/awiebe/devkitPro/devkitARM/arm-none-eabi/include/c++/4.8.2/arm-none-eabi/bits/gthr-default.h **** 
 179:/Users/awiebe/devkitPro/devkitARM/arm-none-eabi/include/c++/4.8.2/arm-none-eabi/bits/gthr-default.h **** /* Deallocate a condition.  */
 180:/Users/awiebe/devkitPro/devkitARM/arm-none-eabi/include/c++/4.8.2/arm-none-eabi/bits/gthr-default.h **** static inline int
 181:/Users/awiebe/devkitPro/devkitARM/arm-none-eabi/include/c++/4.8.2/arm-none-eabi/bits/gthr-default.h **** __gthread_objc_condition_deallocate (objc_condition_t condition _GLIBCXX_UNUSED)
 182:/Users/awiebe/devkitPro/devkitARM/arm-none-eabi/include/c++/4.8.2/arm-none-eabi/bits/gthr-default.h **** {
 183:/Users/awiebe/devkitPro/devkitARM/arm-none-eabi/include/c++/4.8.2/arm-none-eabi/bits/gthr-default.h ****   return 0;
 184:/Users/awiebe/devkitPro/devkitARM/arm-none-eabi/include/c++/4.8.2/arm-none-eabi/bits/gthr-default.h **** }
 185:/Users/awiebe/devkitPro/devkitARM/arm-none-eabi/include/c++/4.8.2/arm-none-eabi/bits/gthr-default.h **** 
 186:/Users/awiebe/devkitPro/devkitARM/arm-none-eabi/include/c++/4.8.2/arm-none-eabi/bits/gthr-default.h **** /* Wait on the condition */
 187:/Users/awiebe/devkitPro/devkitARM/arm-none-eabi/include/c++/4.8.2/arm-none-eabi/bits/gthr-default.h **** static inline int
 188:/Users/awiebe/devkitPro/devkitARM/arm-none-eabi/include/c++/4.8.2/arm-none-eabi/bits/gthr-default.h **** __gthread_objc_condition_wait (objc_condition_t condition _GLIBCXX_UNUSED,
 189:/Users/awiebe/devkitPro/devkitARM/arm-none-eabi/include/c++/4.8.2/arm-none-eabi/bits/gthr-default.h **** 			       objc_mutex_t mutex _GLIBCXX_UNUSED)
 190:/Users/awiebe/devkitPro/devkitARM/arm-none-eabi/include/c++/4.8.2/arm-none-eabi/bits/gthr-default.h **** {
 191:/Users/awiebe/devkitPro/devkitARM/arm-none-eabi/include/c++/4.8.2/arm-none-eabi/bits/gthr-default.h ****   return 0;
 192:/Users/awiebe/devkitPro/devkitARM/arm-none-eabi/include/c++/4.8.2/arm-none-eabi/bits/gthr-default.h **** }
 193:/Users/awiebe/devkitPro/devkitARM/arm-none-eabi/include/c++/4.8.2/arm-none-eabi/bits/gthr-default.h **** 
 194:/Users/awiebe/devkitPro/devkitARM/arm-none-eabi/include/c++/4.8.2/arm-none-eabi/bits/gthr-default.h **** /* Wake up all threads waiting on this condition.  */
 195:/Users/awiebe/devkitPro/devkitARM/arm-none-eabi/include/c++/4.8.2/arm-none-eabi/bits/gthr-default.h **** static inline int
 196:/Users/awiebe/devkitPro/devkitARM/arm-none-eabi/include/c++/4.8.2/arm-none-eabi/bits/gthr-default.h **** __gthread_objc_condition_broadcast (objc_condition_t condition _GLIBCXX_UNUSED)
 197:/Users/awiebe/devkitPro/devkitARM/arm-none-eabi/include/c++/4.8.2/arm-none-eabi/bits/gthr-default.h **** {
 198:/Users/awiebe/devkitPro/devkitARM/arm-none-eabi/include/c++/4.8.2/arm-none-eabi/bits/gthr-default.h ****   return 0;
 199:/Users/awiebe/devkitPro/devkitARM/arm-none-eabi/include/c++/4.8.2/arm-none-eabi/bits/gthr-default.h **** }
 200:/Users/awiebe/devkitPro/devkitARM/arm-none-eabi/include/c++/4.8.2/arm-none-eabi/bits/gthr-default.h **** 
 201:/Users/awiebe/devkitPro/devkitARM/arm-none-eabi/include/c++/4.8.2/arm-none-eabi/bits/gthr-default.h **** /* Wake up one thread waiting on this condition.  */
 202:/Users/awiebe/devkitPro/devkitARM/arm-none-eabi/include/c++/4.8.2/arm-none-eabi/bits/gthr-default.h **** static inline int
 203:/Users/awiebe/devkitPro/devkitARM/arm-none-eabi/include/c++/4.8.2/arm-none-eabi/bits/gthr-default.h **** __gthread_objc_condition_signal (objc_condition_t condition _GLIBCXX_UNUSED)
 204:/Users/awiebe/devkitPro/devkitARM/arm-none-eabi/include/c++/4.8.2/arm-none-eabi/bits/gthr-default.h **** {
 205:/Users/awiebe/devkitPro/devkitARM/arm-none-eabi/include/c++/4.8.2/arm-none-eabi/bits/gthr-default.h ****   return 0;
 206:/Users/awiebe/devkitPro/devkitARM/arm-none-eabi/include/c++/4.8.2/arm-none-eabi/bits/gthr-default.h **** }
 207:/Users/awiebe/devkitPro/devkitARM/arm-none-eabi/include/c++/4.8.2/arm-none-eabi/bits/gthr-default.h **** 
 208:/Users/awiebe/devkitPro/devkitARM/arm-none-eabi/include/c++/4.8.2/arm-none-eabi/bits/gthr-default.h **** #else /* _LIBOBJC */
 209:/Users/awiebe/devkitPro/devkitARM/arm-none-eabi/include/c++/4.8.2/arm-none-eabi/bits/gthr-default.h **** 
 210:/Users/awiebe/devkitPro/devkitARM/arm-none-eabi/include/c++/4.8.2/arm-none-eabi/bits/gthr-default.h **** static inline int
 211:/Users/awiebe/devkitPro/devkitARM/arm-none-eabi/include/c++/4.8.2/arm-none-eabi/bits/gthr-default.h **** __gthread_active_p (void)
 212:/Users/awiebe/devkitPro/devkitARM/arm-none-eabi/include/c++/4.8.2/arm-none-eabi/bits/gthr-default.h **** {
 213:/Users/awiebe/devkitPro/devkitARM/arm-none-eabi/include/c++/4.8.2/arm-none-eabi/bits/gthr-default.h ****   return 0;
 214:/Users/awiebe/devkitPro/devkitARM/arm-none-eabi/include/c++/4.8.2/arm-none-eabi/bits/gthr-default.h **** }
 215:/Users/awiebe/devkitPro/devkitARM/arm-none-eabi/include/c++/4.8.2/arm-none-eabi/bits/gthr-default.h **** 
 216:/Users/awiebe/devkitPro/devkitARM/arm-none-eabi/include/c++/4.8.2/arm-none-eabi/bits/gthr-default.h **** static inline int
 217:/Users/awiebe/devkitPro/devkitARM/arm-none-eabi/include/c++/4.8.2/arm-none-eabi/bits/gthr-default.h **** __gthread_once (__gthread_once_t *__once _GLIBCXX_UNUSED, void (*__func) (void) _GLIBCXX_UNUSED)
 218:/Users/awiebe/devkitPro/devkitARM/arm-none-eabi/include/c++/4.8.2/arm-none-eabi/bits/gthr-default.h **** {
 219:/Users/awiebe/devkitPro/devkitARM/arm-none-eabi/include/c++/4.8.2/arm-none-eabi/bits/gthr-default.h ****   return 0;
 220:/Users/awiebe/devkitPro/devkitARM/arm-none-eabi/include/c++/4.8.2/arm-none-eabi/bits/gthr-default.h **** }
 221:/Users/awiebe/devkitPro/devkitARM/arm-none-eabi/include/c++/4.8.2/arm-none-eabi/bits/gthr-default.h **** 
 222:/Users/awiebe/devkitPro/devkitARM/arm-none-eabi/include/c++/4.8.2/arm-none-eabi/bits/gthr-default.h **** static inline int _GLIBCXX_UNUSED
 223:/Users/awiebe/devkitPro/devkitARM/arm-none-eabi/include/c++/4.8.2/arm-none-eabi/bits/gthr-default.h **** __gthread_key_create (__gthread_key_t *__key _GLIBCXX_UNUSED, void (*__func) (void *) _GLIBCXX_UNUS
 224:/Users/awiebe/devkitPro/devkitARM/arm-none-eabi/include/c++/4.8.2/arm-none-eabi/bits/gthr-default.h **** {
 225:/Users/awiebe/devkitPro/devkitARM/arm-none-eabi/include/c++/4.8.2/arm-none-eabi/bits/gthr-default.h ****   return 0;
 226:/Users/awiebe/devkitPro/devkitARM/arm-none-eabi/include/c++/4.8.2/arm-none-eabi/bits/gthr-default.h **** }
 227:/Users/awiebe/devkitPro/devkitARM/arm-none-eabi/include/c++/4.8.2/arm-none-eabi/bits/gthr-default.h **** 
 228:/Users/awiebe/devkitPro/devkitARM/arm-none-eabi/include/c++/4.8.2/arm-none-eabi/bits/gthr-default.h **** static int _GLIBCXX_UNUSED
 229:/Users/awiebe/devkitPro/devkitARM/arm-none-eabi/include/c++/4.8.2/arm-none-eabi/bits/gthr-default.h **** __gthread_key_delete (__gthread_key_t __key _GLIBCXX_UNUSED)
 230:/Users/awiebe/devkitPro/devkitARM/arm-none-eabi/include/c++/4.8.2/arm-none-eabi/bits/gthr-default.h **** {
  28              		.loc 1 230 0
  29              		.cfi_startproc
  30              		@ Function supports interworking.
  31              		@ args = 0, pretend = 0, frame = 8
  32              		@ frame_needed = 1, uses_anonymous_args = 0
  33              		@ link register save eliminated.
  34 0000 04B02DE5 		str	fp, [sp, #-4]!
  35              	.LCFI0:
  36              		.cfi_def_cfa_offset 4
  37              		.cfi_offset 11, -4
  38 0004 00B08DE2 		add	fp, sp, #0
  39              	.LCFI1:
  40              		.cfi_def_cfa_register 11
  41 0008 0CD04DE2 		sub	sp, sp, #12
  42 000c 08000BE5 		str	r0, [fp, #-8]
 231:/Users/awiebe/devkitPro/devkitARM/arm-none-eabi/include/c++/4.8.2/arm-none-eabi/bits/gthr-default.h ****   return 0;
  43              		.loc 1 231 0
  44 0010 0030A0E3 		mov	r3, #0
 232:/Users/awiebe/devkitPro/devkitARM/arm-none-eabi/include/c++/4.8.2/arm-none-eabi/bits/gthr-default.h **** }
  45              		.loc 1 232 0
  46 0014 0300A0E1 		mov	r0, r3
  47 0018 00D04BE2 		sub	sp, fp, #0
  48              		@ sp needed
  49 001c 04B09DE4 		ldr	fp, [sp], #4
  50 0020 1EFF2FE1 		bx	lr
  51              		.cfi_endproc
  52              	.LFE312:
  54              		.bss
  55              		.align	2
  56              	_ZStL8__ioinit:
  57 0000 00       		.space	1
  58 0001 000000   		.text
  59              		.align	2
  61              	_Z41__static_initialization_and_destruction_0ii:
  62              	.LFB1135:
  63              		.file 2 "../source/tinyUnity/Debug.cpp"
   1:../source/tinyUnity/Debug.cpp **** /*
   2:../source/tinyUnity/Debug.cpp ****  * Debug.cpp
   3:../source/tinyUnity/Debug.cpp ****  *
   4:../source/tinyUnity/Debug.cpp ****  *  Created on: 2013-06-21
   5:../source/tinyUnity/Debug.cpp ****  *      Author: awiebe
   6:../source/tinyUnity/Debug.cpp ****  */
   7:../source/tinyUnity/Debug.cpp **** 
   8:../source/tinyUnity/Debug.cpp **** #include "Debug.h"
   9:../source/tinyUnity/Debug.cpp **** 
  10:../source/tinyUnity/Debug.cpp **** namespace tinyUnity {
  11:../source/tinyUnity/Debug.cpp **** 
  12:../source/tinyUnity/Debug.cpp **** //Debug::Debug() {
  13:../source/tinyUnity/Debug.cpp **** //	// TODO Auto-generated constructor stub
  14:../source/tinyUnity/Debug.cpp **** //
  15:../source/tinyUnity/Debug.cpp **** //}
  16:../source/tinyUnity/Debug.cpp **** //
  17:../source/tinyUnity/Debug.cpp **** //Debug::~Debug() {
  18:../source/tinyUnity/Debug.cpp **** //	// TODO Auto-generated destructor stub
  19:../source/tinyUnity/Debug.cpp **** //}
  20:../source/tinyUnity/Debug.cpp **** 
  21:../source/tinyUnity/Debug.cpp **** } /* namespace tinyUnity */
  64              		.loc 2 21 0
  65              		.cfi_startproc
  66              		@ Function supports interworking.
  67              		@ args = 0, pretend = 0, frame = 8
  68              		@ frame_needed = 1, uses_anonymous_args = 0
  69 0024 00482DE9 		stmfd	sp!, {fp, lr}
  70              	.LCFI2:
  71              		.cfi_def_cfa_offset 8
  72              		.cfi_offset 11, -8
  73              		.cfi_offset 14, -4
  74 0028 04B08DE2 		add	fp, sp, #4
  75              	.LCFI3:
  76              		.cfi_def_cfa 11, 4
  77 002c 08D04DE2 		sub	sp, sp, #8
  78 0030 08000BE5 		str	r0, [fp, #-8]
  79 0034 0C100BE5 		str	r1, [fp, #-12]
  80              		.loc 2 21 0
  81 0038 08301BE5 		ldr	r3, [fp, #-8]
  82 003c 010053E3 		cmp	r3, #1
  83 0040 0900001A 		bne	.L3
  84              		.loc 2 21 0 is_stmt 0 discriminator 1
  85 0044 0C201BE5 		ldr	r2, [fp, #-12]
  86 0048 28309FE5 		ldr	r3, .L5
  87 004c 030052E1 		cmp	r2, r3
  88 0050 0500001A 		bne	.L3
  89              		.file 3 "/Users/awiebe/devkitPro/devkitARM/arm-none-eabi/include/c++/4.8.2/iostream"
   1:/Users/awiebe/devkitPro/devkitARM/arm-none-eabi/include/c++/4.8.2/iostream **** // Standard iostream objects -*- C++ -*-
   2:/Users/awiebe/devkitPro/devkitARM/arm-none-eabi/include/c++/4.8.2/iostream **** 
   3:/Users/awiebe/devkitPro/devkitARM/arm-none-eabi/include/c++/4.8.2/iostream **** // Copyright (C) 1997-2013 Free Software Foundation, Inc.
   4:/Users/awiebe/devkitPro/devkitARM/arm-none-eabi/include/c++/4.8.2/iostream **** //
   5:/Users/awiebe/devkitPro/devkitARM/arm-none-eabi/include/c++/4.8.2/iostream **** // This file is part of the GNU ISO C++ Library.  This library is free
   6:/Users/awiebe/devkitPro/devkitARM/arm-none-eabi/include/c++/4.8.2/iostream **** // software; you can redistribute it and/or modify it under the
   7:/Users/awiebe/devkitPro/devkitARM/arm-none-eabi/include/c++/4.8.2/iostream **** // terms of the GNU General Public License as published by the
   8:/Users/awiebe/devkitPro/devkitARM/arm-none-eabi/include/c++/4.8.2/iostream **** // Free Software Foundation; either version 3, or (at your option)
   9:/Users/awiebe/devkitPro/devkitARM/arm-none-eabi/include/c++/4.8.2/iostream **** // any later version.
  10:/Users/awiebe/devkitPro/devkitARM/arm-none-eabi/include/c++/4.8.2/iostream **** 
  11:/Users/awiebe/devkitPro/devkitARM/arm-none-eabi/include/c++/4.8.2/iostream **** // This library is distributed in the hope that it will be useful,
  12:/Users/awiebe/devkitPro/devkitARM/arm-none-eabi/include/c++/4.8.2/iostream **** // but WITHOUT ANY WARRANTY; without even the implied warranty of
  13:/Users/awiebe/devkitPro/devkitARM/arm-none-eabi/include/c++/4.8.2/iostream **** // MERCHANTABILITY or FITNESS FOR A PARTICULAR PURPOSE.  See the
  14:/Users/awiebe/devkitPro/devkitARM/arm-none-eabi/include/c++/4.8.2/iostream **** // GNU General Public License for more details.
  15:/Users/awiebe/devkitPro/devkitARM/arm-none-eabi/include/c++/4.8.2/iostream **** 
  16:/Users/awiebe/devkitPro/devkitARM/arm-none-eabi/include/c++/4.8.2/iostream **** // Under Section 7 of GPL version 3, you are granted additional
  17:/Users/awiebe/devkitPro/devkitARM/arm-none-eabi/include/c++/4.8.2/iostream **** // permissions described in the GCC Runtime Library Exception, version
  18:/Users/awiebe/devkitPro/devkitARM/arm-none-eabi/include/c++/4.8.2/iostream **** // 3.1, as published by the Free Software Foundation.
  19:/Users/awiebe/devkitPro/devkitARM/arm-none-eabi/include/c++/4.8.2/iostream **** 
  20:/Users/awiebe/devkitPro/devkitARM/arm-none-eabi/include/c++/4.8.2/iostream **** // You should have received a copy of the GNU General Public License and
  21:/Users/awiebe/devkitPro/devkitARM/arm-none-eabi/include/c++/4.8.2/iostream **** // a copy of the GCC Runtime Library Exception along with this program;
  22:/Users/awiebe/devkitPro/devkitARM/arm-none-eabi/include/c++/4.8.2/iostream **** // see the files COPYING3 and COPYING.RUNTIME respectively.  If not, see
  23:/Users/awiebe/devkitPro/devkitARM/arm-none-eabi/include/c++/4.8.2/iostream **** // <http://www.gnu.org/licenses/>.
  24:/Users/awiebe/devkitPro/devkitARM/arm-none-eabi/include/c++/4.8.2/iostream **** 
  25:/Users/awiebe/devkitPro/devkitARM/arm-none-eabi/include/c++/4.8.2/iostream **** /** @file include/iostream
  26:/Users/awiebe/devkitPro/devkitARM/arm-none-eabi/include/c++/4.8.2/iostream ****  *  This is a Standard C++ Library header.
  27:/Users/awiebe/devkitPro/devkitARM/arm-none-eabi/include/c++/4.8.2/iostream ****  */
  28:/Users/awiebe/devkitPro/devkitARM/arm-none-eabi/include/c++/4.8.2/iostream **** 
  29:/Users/awiebe/devkitPro/devkitARM/arm-none-eabi/include/c++/4.8.2/iostream **** //
  30:/Users/awiebe/devkitPro/devkitARM/arm-none-eabi/include/c++/4.8.2/iostream **** // ISO C++ 14882: 27.3  Standard iostream objects
  31:/Users/awiebe/devkitPro/devkitARM/arm-none-eabi/include/c++/4.8.2/iostream **** //
  32:/Users/awiebe/devkitPro/devkitARM/arm-none-eabi/include/c++/4.8.2/iostream **** 
  33:/Users/awiebe/devkitPro/devkitARM/arm-none-eabi/include/c++/4.8.2/iostream **** #ifndef _GLIBCXX_IOSTREAM
  34:/Users/awiebe/devkitPro/devkitARM/arm-none-eabi/include/c++/4.8.2/iostream **** #define _GLIBCXX_IOSTREAM 1
  35:/Users/awiebe/devkitPro/devkitARM/arm-none-eabi/include/c++/4.8.2/iostream **** 
  36:/Users/awiebe/devkitPro/devkitARM/arm-none-eabi/include/c++/4.8.2/iostream **** #pragma GCC system_header
  37:/Users/awiebe/devkitPro/devkitARM/arm-none-eabi/include/c++/4.8.2/iostream **** 
  38:/Users/awiebe/devkitPro/devkitARM/arm-none-eabi/include/c++/4.8.2/iostream **** #include <bits/c++config.h>
  39:/Users/awiebe/devkitPro/devkitARM/arm-none-eabi/include/c++/4.8.2/iostream **** #include <ostream>
  40:/Users/awiebe/devkitPro/devkitARM/arm-none-eabi/include/c++/4.8.2/iostream **** #include <istream>
  41:/Users/awiebe/devkitPro/devkitARM/arm-none-eabi/include/c++/4.8.2/iostream **** 
  42:/Users/awiebe/devkitPro/devkitARM/arm-none-eabi/include/c++/4.8.2/iostream **** namespace std _GLIBCXX_VISIBILITY(default)
  43:/Users/awiebe/devkitPro/devkitARM/arm-none-eabi/include/c++/4.8.2/iostream **** {
  44:/Users/awiebe/devkitPro/devkitARM/arm-none-eabi/include/c++/4.8.2/iostream **** _GLIBCXX_BEGIN_NAMESPACE_VERSION
  45:/Users/awiebe/devkitPro/devkitARM/arm-none-eabi/include/c++/4.8.2/iostream **** 
  46:/Users/awiebe/devkitPro/devkitARM/arm-none-eabi/include/c++/4.8.2/iostream ****   /**
  47:/Users/awiebe/devkitPro/devkitARM/arm-none-eabi/include/c++/4.8.2/iostream ****    *  @name Standard Stream Objects
  48:/Users/awiebe/devkitPro/devkitARM/arm-none-eabi/include/c++/4.8.2/iostream ****    *
  49:/Users/awiebe/devkitPro/devkitARM/arm-none-eabi/include/c++/4.8.2/iostream ****    *  The &lt;iostream&gt; header declares the eight <em>standard stream
  50:/Users/awiebe/devkitPro/devkitARM/arm-none-eabi/include/c++/4.8.2/iostream ****    *  objects</em>.  For other declarations, see
  51:/Users/awiebe/devkitPro/devkitARM/arm-none-eabi/include/c++/4.8.2/iostream ****    *  http://gcc.gnu.org/onlinedocs/libstdc++/manual/bk01pt11ch24.html
  52:/Users/awiebe/devkitPro/devkitARM/arm-none-eabi/include/c++/4.8.2/iostream ****    *  and the @link iosfwd I/O forward declarations @endlink
  53:/Users/awiebe/devkitPro/devkitARM/arm-none-eabi/include/c++/4.8.2/iostream ****    *
  54:/Users/awiebe/devkitPro/devkitARM/arm-none-eabi/include/c++/4.8.2/iostream ****    *  They are required by default to cooperate with the global C
  55:/Users/awiebe/devkitPro/devkitARM/arm-none-eabi/include/c++/4.8.2/iostream ****    *  library's @c FILE streams, and to be available during program
  56:/Users/awiebe/devkitPro/devkitARM/arm-none-eabi/include/c++/4.8.2/iostream ****    *  startup and termination. For more information, see the HOWTO
  57:/Users/awiebe/devkitPro/devkitARM/arm-none-eabi/include/c++/4.8.2/iostream ****    *  linked to above.
  58:/Users/awiebe/devkitPro/devkitARM/arm-none-eabi/include/c++/4.8.2/iostream ****   */
  59:/Users/awiebe/devkitPro/devkitARM/arm-none-eabi/include/c++/4.8.2/iostream ****   //@{
  60:/Users/awiebe/devkitPro/devkitARM/arm-none-eabi/include/c++/4.8.2/iostream ****   extern istream cin;		/// Linked to standard input
  61:/Users/awiebe/devkitPro/devkitARM/arm-none-eabi/include/c++/4.8.2/iostream ****   extern ostream cout;		/// Linked to standard output
  62:/Users/awiebe/devkitPro/devkitARM/arm-none-eabi/include/c++/4.8.2/iostream ****   extern ostream cerr;		/// Linked to standard error (unbuffered)
  63:/Users/awiebe/devkitPro/devkitARM/arm-none-eabi/include/c++/4.8.2/iostream ****   extern ostream clog;		/// Linked to standard error (buffered)
  64:/Users/awiebe/devkitPro/devkitARM/arm-none-eabi/include/c++/4.8.2/iostream **** 
  65:/Users/awiebe/devkitPro/devkitARM/arm-none-eabi/include/c++/4.8.2/iostream **** #ifdef _GLIBCXX_USE_WCHAR_T
  66:/Users/awiebe/devkitPro/devkitARM/arm-none-eabi/include/c++/4.8.2/iostream ****   extern wistream wcin;		/// Linked to standard input
  67:/Users/awiebe/devkitPro/devkitARM/arm-none-eabi/include/c++/4.8.2/iostream ****   extern wostream wcout;	/// Linked to standard output
  68:/Users/awiebe/devkitPro/devkitARM/arm-none-eabi/include/c++/4.8.2/iostream ****   extern wostream wcerr;	/// Linked to standard error (unbuffered)
  69:/Users/awiebe/devkitPro/devkitARM/arm-none-eabi/include/c++/4.8.2/iostream ****   extern wostream wclog;	/// Linked to standard error (buffered)
  70:/Users/awiebe/devkitPro/devkitARM/arm-none-eabi/include/c++/4.8.2/iostream **** #endif
  71:/Users/awiebe/devkitPro/devkitARM/arm-none-eabi/include/c++/4.8.2/iostream ****   //@}
  72:/Users/awiebe/devkitPro/devkitARM/arm-none-eabi/include/c++/4.8.2/iostream **** 
  73:/Users/awiebe/devkitPro/devkitARM/arm-none-eabi/include/c++/4.8.2/iostream ****   // For construction of filebuffers for cout, cin, cerr, clog et. al.
  74:/Users/awiebe/devkitPro/devkitARM/arm-none-eabi/include/c++/4.8.2/iostream ****   static ios_base::Init __ioinit;
  90              		.loc 3 74 0 is_stmt 1
  91 0054 20009FE5 		ldr	r0, .L5+4
  92 0058 FEFFFFEB 		bl	_ZNSt8ios_base4InitC1Ev
  93 005c 18009FE5 		ldr	r0, .L5+4
  94 0060 18109FE5 		ldr	r1, .L5+8
  95 0064 18209FE5 		ldr	r2, .L5+12
  96 0068 FEFFFFEB 		bl	__aeabi_atexit
  97              	.L3:
  98              		.loc 2 21 0
  99 006c 04D04BE2 		sub	sp, fp, #4
 100              		@ sp needed
 101 0070 0048BDE8 		ldmfd	sp!, {fp, lr}
 102 0074 1EFF2FE1 		bx	lr
 103              	.L6:
 104              		.align	2
 105              	.L5:
 106 0078 FFFF0000 		.word	65535
 107 007c 00000000 		.word	_ZStL8__ioinit
 108 0080 00000000 		.word	_ZNSt8ios_base4InitD1Ev
 109 0084 00000000 		.word	__dso_handle
 110              		.cfi_endproc
 111              	.LFE1135:
 113              		.align	2
 115              	_GLOBAL__sub_I_Debug.cpp:
 116              	.LFB1136:
 117              		.loc 2 21 0
 118              		.cfi_startproc
 119              		@ Function supports interworking.
 120              		@ args = 0, pretend = 0, frame = 0
 121              		@ frame_needed = 1, uses_anonymous_args = 0
 122 0088 00482DE9 		stmfd	sp!, {fp, lr}
 123              	.LCFI4:
 124              		.cfi_def_cfa_offset 8
 125              		.cfi_offset 11, -8
 126              		.cfi_offset 14, -4
 127 008c 04B08DE2 		add	fp, sp, #4
 128              	.LCFI5:
 129              		.cfi_def_cfa 11, 4
 130              		.loc 2 21 0
 131 0090 0100A0E3 		mov	r0, #1
 132 0094 0C109FE5 		ldr	r1, .L8
 133 0098 E1FFFFEB 		bl	_Z41__static_initialization_and_destruction_0ii
 134 009c 04D04BE2 		sub	sp, fp, #4
 135              		@ sp needed
 136 00a0 0048BDE8 		ldmfd	sp!, {fp, lr}
 137 00a4 1EFF2FE1 		bx	lr
 138              	.L9:
 139              		.align	2
 140              	.L8:
 141 00a8 FFFF0000 		.word	65535
 142              		.cfi_endproc
 143              	.LFE1136:
 145              		.section	.init_array,"aw",%init_array
 146              		.align	2
 147 0000 00000000 		.word	_GLOBAL__sub_I_Debug.cpp(target1)
 148              		.text
 149              	.Letext0:
 150              		.file 4 "/Users/awiebe/devkitPro/devkitARM/lib/gcc/arm-none-eabi/4.8.2/include/stddef.h"
 151              		.file 5 "/Users/awiebe/devkitPro/devkitARM/arm-none-eabi/include/machine/_default_types.h"
 152              		.file 6 "/Users/awiebe/devkitPro/devkitARM/arm-none-eabi/include/sys/lock.h"
 153              		.file 7 "/Users/awiebe/devkitPro/devkitARM/arm-none-eabi/include/sys/_types.h"
 154              		.file 8 "/Users/awiebe/devkitPro/devkitARM/arm-none-eabi/include/sys/reent.h"
 155              		.file 9 "/Users/awiebe/devkitPro/devkitARM/lib/gcc/arm-none-eabi/4.8.2/include/stdarg.h"
 156              		.file 10 "<built-in>"
 157              		.file 11 "/Users/awiebe/devkitPro/devkitARM/arm-none-eabi/include/wchar.h"
 158              		.file 12 "/Users/awiebe/devkitPro/devkitARM/arm-none-eabi/include/c++/4.8.2/cwchar"
 159              		.file 13 "/Users/awiebe/devkitPro/devkitARM/arm-none-eabi/include/c++/4.8.2/arm-none-eabi/bits/c++
 160              		.file 14 "/Users/awiebe/devkitPro/devkitARM/arm-none-eabi/include/c++/4.8.2/cstdint"
 161              		.file 15 "/Users/awiebe/devkitPro/devkitARM/arm-none-eabi/include/c++/4.8.2/clocale"
 162              		.file 16 "/Users/awiebe/devkitPro/devkitARM/arm-none-eabi/include/c++/4.8.2/bits/ios_base.h"
 163              		.file 17 "/Users/awiebe/devkitPro/devkitARM/arm-none-eabi/include/c++/4.8.2/cwctype"
 164              		.file 18 "/Users/awiebe/devkitPro/devkitARM/arm-none-eabi/include/c++/4.8.2/ext/new_allocator.h"
 165              		.file 19 "/Users/awiebe/devkitPro/devkitARM/arm-none-eabi/include/c++/4.8.2/ext/numeric_traits.h"
 166              		.file 20 "/Users/awiebe/devkitPro/devkitARM/arm-none-eabi/include/c++/4.8.2/exception"
 167              		.file 21 "/Users/awiebe/devkitPro/devkitARM/arm-none-eabi/include/c++/4.8.2/debug/debug.h"
 168              		.file 22 "/Users/awiebe/devkitPro/devkitARM/arm-none-eabi/include/stdint.h"
 169              		.file 23 "/Users/awiebe/devkitPro/devkitARM/arm-none-eabi/include/locale.h"
 170              		.file 24 "/Users/awiebe/devkitPro/devkitARM/arm-none-eabi/include/c++/4.8.2/arm-none-eabi/bits/ato
 171              		.file 25 "/Users/awiebe/devkitPro/devkitARM/arm-none-eabi/include/wctype.h"
 172              		.file 26 "../source/tinyUnity/Debug.h"
 173              		.file 27 "/Users/awiebe/devkitPro/devkitARM/arm-none-eabi/include/c++/4.8.2/bits/stl_pair.h"