   1              		.cpu arm9
   2              		.fpu softvfp
   3              		.eabi_attribute 20, 1
   4              		.eabi_attribute 21, 1
   5              		.eabi_attribute 23, 3
   6              		.eabi_attribute 24, 1
   7              		.eabi_attribute 25, 1
   8              		.eabi_attribute 26, 1
   9              		.eabi_attribute 30, 6
  10              		.eabi_attribute 34, 0
  11              		.eabi_attribute 18, 4
  12              		.file	"Engine.cpp"
  13              		.text
  14              	.Ltext0:
  15              		.cfi_sections	.debug_frame
  16              		.align	2
  17              		.global	_ZN9tinyUnity6EngineC2Ev
  19              	_ZN9tinyUnity6EngineC2Ev:
  20              	.LFB1:
  21              		.file 1 "../source/tinyUnity/Engine.cpp"
   1:../source/tinyUnity/Engine.cpp **** /*
   2:../source/tinyUnity/Engine.cpp ****  * Engine.cpp
   3:../source/tinyUnity/Engine.cpp ****  *
   4:../source/tinyUnity/Engine.cpp ****  *  Created on: Sep 1, 2014
   5:../source/tinyUnity/Engine.cpp ****  *      Author: awiebe
   6:../source/tinyUnity/Engine.cpp ****  */
   7:../source/tinyUnity/Engine.cpp **** 
   8:../source/tinyUnity/Engine.cpp **** #include "Engine.h"
   9:../source/tinyUnity/Engine.cpp **** 
  10:../source/tinyUnity/Engine.cpp **** namespace tinyUnity {
  11:../source/tinyUnity/Engine.cpp **** 
  12:../source/tinyUnity/Engine.cpp **** Engine::Engine() {
  22              		.loc 1 12 0
  23              		.cfi_startproc
  24              		@ Function supports interworking.
  25              		@ args = 0, pretend = 0, frame = 8
  26              		@ frame_needed = 1, uses_anonymous_args = 0
  27              		@ link register save eliminated.
  28 0000 04B02DE5 		str	fp, [sp, #-4]!
  29              	.LCFI0:
  30              		.cfi_def_cfa_offset 4
  31              		.cfi_offset 11, -4
  32 0004 00B08DE2 		add	fp, sp, #0
  33              	.LCFI1:
  34              		.cfi_def_cfa_register 11
  35 0008 0CD04DE2 		sub	sp, sp, #12
  36 000c 08000BE5 		str	r0, [fp, #-8]
  37              	.LBB2:
  38              		.loc 1 12 0
  39 0010 08301BE5 		ldr	r3, [fp, #-8]
  40 0014 14209FE5 		ldr	r2, .L4
  41 0018 002083E5 		str	r2, [r3]
  42              	.LBE2:
  13:../source/tinyUnity/Engine.cpp **** 	// TODO Auto-generated constructor stub
  14:../source/tinyUnity/Engine.cpp **** 
  15:../source/tinyUnity/Engine.cpp **** }
  43              		.loc 1 15 0
  44 001c 08301BE5 		ldr	r3, [fp, #-8]
  45 0020 0300A0E1 		mov	r0, r3
  46 0024 00D04BE2 		sub	sp, fp, #0
  47              		@ sp needed
  48 0028 04B09DE4 		ldr	fp, [sp], #4
  49 002c 1EFF2FE1 		bx	lr
  50              	.L5:
  51              		.align	2
  52              	.L4:
  53 0030 08000000 		.word	_ZTVN9tinyUnity6EngineE+8
  54              		.cfi_endproc
  55              	.LFE1:
  57              		.global	_ZN9tinyUnity6EngineC1Ev
  58              		.set	_ZN9tinyUnity6EngineC1Ev,_ZN9tinyUnity6EngineC2Ev
  59              		.align	2
  60              		.global	_ZN9tinyUnity6Engine5StartEv
  62              	_ZN9tinyUnity6Engine5StartEv:
  63              	.LFB3:
  16:../source/tinyUnity/Engine.cpp **** 
  17:../source/tinyUnity/Engine.cpp **** void Engine::Start()
  18:../source/tinyUnity/Engine.cpp **** {
  64              		.loc 1 18 0
  65              		.cfi_startproc
  66              		@ Function supports interworking.
  67              		@ args = 0, pretend = 0, frame = 8
  68              		@ frame_needed = 1, uses_anonymous_args = 0
  69              		@ link register save eliminated.
  70 0034 04B02DE5 		str	fp, [sp, #-4]!
  71              	.LCFI2:
  72              		.cfi_def_cfa_offset 4
  73              		.cfi_offset 11, -4
  74 0038 00B08DE2 		add	fp, sp, #0
  75              	.LCFI3:
  76              		.cfi_def_cfa_register 11
  77 003c 0CD04DE2 		sub	sp, sp, #12
  78 0040 08000BE5 		str	r0, [fp, #-8]
  19:../source/tinyUnity/Engine.cpp **** 	//ComputePhysics();
  20:../source/tinyUnity/Engine.cpp **** 	//DrawScene();
  21:../source/tinyUnity/Engine.cpp **** 	//Destroy();
  22:../source/tinyUnity/Engine.cpp **** 
  23:../source/tinyUnity/Engine.cpp **** }
  79              		.loc 1 23 0
  80 0044 00D04BE2 		sub	sp, fp, #0
  81              		@ sp needed
  82 0048 04B09DE4 		ldr	fp, [sp], #4
  83 004c 1EFF2FE1 		bx	lr
  84              		.cfi_endproc
  85              	.LFE3:
  87              		.align	2
  88              		.global	_ZN9tinyUnity6EngineD2Ev
  90              	_ZN9tinyUnity6EngineD2Ev:
  91              	.LFB5:
  24:../source/tinyUnity/Engine.cpp **** 
  25:../source/tinyUnity/Engine.cpp **** Engine::~Engine() {
  92              		.loc 1 25 0
  93              		.cfi_startproc
  94              		@ Function supports interworking.
  95              		@ args = 0, pretend = 0, frame = 8
  96              		@ frame_needed = 1, uses_anonymous_args = 0
  97 0050 00482DE9 		stmfd	sp!, {fp, lr}
  98              	.LCFI4:
  99              		.cfi_def_cfa_offset 8
 100              		.cfi_offset 11, -8
 101              		.cfi_offset 14, -4
 102 0054 04B08DE2 		add	fp, sp, #4
 103              	.LCFI5:
 104              		.cfi_def_cfa 11, 4
 105 0058 08D04DE2 		sub	sp, sp, #8
 106 005c 08000BE5 		str	r0, [fp, #-8]
 107              	.LBB3:
 108              		.loc 1 25 0
 109 0060 08301BE5 		ldr	r3, [fp, #-8]
 110 0064 28209FE5 		ldr	r2, .L11
 111 0068 002083E5 		str	r2, [r3]
 112              	.LBE3:
  26:../source/tinyUnity/Engine.cpp **** 	// TODO Auto-generated destructor stub
  27:../source/tinyUnity/Engine.cpp **** }
 113              		.loc 1 27 0
 114 006c 0030A0E3 		mov	r3, #0
 115 0070 000053E3 		cmp	r3, #0
 116 0074 0100000A 		beq	.L9
 117              		.loc 1 27 0 is_stmt 0 discriminator 1
 118 0078 08001BE5 		ldr	r0, [fp, #-8]
 119 007c FEFFFFEB 		bl	_ZdlPv
 120              	.L9:
 121              		.loc 1 27 0 discriminator 2
 122 0080 08301BE5 		ldr	r3, [fp, #-8]
 123 0084 0300A0E1 		mov	r0, r3
 124 0088 04D04BE2 		sub	sp, fp, #4
 125              		@ sp needed
 126 008c 0048BDE8 		ldmfd	sp!, {fp, lr}
 127 0090 1EFF2FE1 		bx	lr
 128              	.L12:
 129              		.align	2
 130              	.L11:
 131 0094 08000000 		.word	_ZTVN9tinyUnity6EngineE+8
 132              		.cfi_endproc
 133              	.LFE5:
 135              		.global	_ZN9tinyUnity6EngineD1Ev
 136              		.set	_ZN9tinyUnity6EngineD1Ev,_ZN9tinyUnity6EngineD2Ev
 137              		.align	2
 138              		.global	_ZN9tinyUnity6EngineD0Ev
 140              	_ZN9tinyUnity6EngineD0Ev:
 141              	.LFB7:
  25:../source/tinyUnity/Engine.cpp **** 	// TODO Auto-generated destructor stub
 142              		.loc 1 25 0 is_stmt 1
 143              		.cfi_startproc
 144              		@ Function supports interworking.
 145              		@ args = 0, pretend = 0, frame = 8
 146              		@ frame_needed = 1, uses_anonymous_args = 0
 147 0098 00482DE9 		stmfd	sp!, {fp, lr}
 148              	.LCFI6:
 149              		.cfi_def_cfa_offset 8
 150              		.cfi_offset 11, -8
 151              		.cfi_offset 14, -4
 152 009c 04B08DE2 		add	fp, sp, #4
 153              	.LCFI7:
 154              		.cfi_def_cfa 11, 4
 155 00a0 08D04DE2 		sub	sp, sp, #8
 156 00a4 08000BE5 		str	r0, [fp, #-8]
 157              		.loc 1 27 0
 158 00a8 08001BE5 		ldr	r0, [fp, #-8]
 159 00ac FEFFFFEB 		bl	_ZN9tinyUnity6EngineD1Ev
 160 00b0 08001BE5 		ldr	r0, [fp, #-8]
 161 00b4 FEFFFFEB 		bl	_ZdlPv
 162 00b8 08301BE5 		ldr	r3, [fp, #-8]
 163 00bc 0300A0E1 		mov	r0, r3
 164 00c0 04D04BE2 		sub	sp, fp, #4
 165              		@ sp needed
 166 00c4 0048BDE8 		ldmfd	sp!, {fp, lr}
 167 00c8 1EFF2FE1 		bx	lr
 168              		.cfi_endproc
 169              	.LFE7:
 171              		.global	_ZTVN9tinyUnity6EngineE
 172              		.section	.rodata
 173              		.align	3
 176              	_ZTVN9tinyUnity6EngineE:
 177 0000 00000000 		.word	0
 178 0004 00000000 		.word	0
 179 0008 00000000 		.word	_ZN9tinyUnity6EngineD1Ev
 180 000c 00000000 		.word	_ZN9tinyUnity6EngineD0Ev
 181              		.text
 182              	.Letext0:
 183              		.file 2 "../source/tinyUnity/Engine.h"