   1              		.cpu arm9
   2              		.fpu softvfp
   3              		.eabi_attribute 20, 1
   4              		.eabi_attribute 21, 1
   5              		.eabi_attribute 23, 3
   6              		.eabi_attribute 24, 1
   7              		.eabi_attribute 25, 1
   8              		.eabi_attribute 26, 1
   9              		.eabi_attribute 30, 6
  10              		.eabi_attribute 34, 0
  11              		.eabi_attribute 18, 4
  12              		.file	"Object.cpp"
  13              		.text
  14              	.Ltext0:
  15              		.cfi_sections	.debug_frame
  16              		.section	.text._ZN9tinyUnity6Object9imageSizeEv,"axG",%progbits,_ZN9tinyUnity6Object9imageSizeEv,c
  17              		.align	2
  18              		.weak	_ZN9tinyUnity6Object9imageSizeEv
  20              	_ZN9tinyUnity6Object9imageSizeEv:
  21              	.LFB0:
  22              		.file 1 "../source/tinyUnity/Object.h"
   1:../source/tinyUnity/Object.h **** /*
   2:../source/tinyUnity/Object.h ****  * Object.h
   3:../source/tinyUnity/Object.h ****  *
   4:../source/tinyUnity/Object.h ****  *  Created on: 2013-06-21
   5:../source/tinyUnity/Object.h ****  *      Author: awiebe
   6:../source/tinyUnity/Object.h ****  */
   7:../source/tinyUnity/Object.h **** 
   8:../source/tinyUnity/Object.h **** #ifndef OBJECT_H_
   9:../source/tinyUnity/Object.h **** #define OBJECT_H_
  10:../source/tinyUnity/Object.h **** #include "config.h"
  11:../source/tinyUnity/Object.h **** namespace tinyUnity {
  12:../source/tinyUnity/Object.h **** 
  13:../source/tinyUnity/Object.h **** class Object {
  14:../source/tinyUnity/Object.h **** public:
  15:../source/tinyUnity/Object.h **** 	Object();
  16:../source/tinyUnity/Object.h **** 	virtual ~Object();
  17:../source/tinyUnity/Object.h **** 	Object* retain();
  18:../source/tinyUnity/Object.h **** 	int release();
  19:../source/tinyUnity/Object.h **** 
  20:../source/tinyUnity/Object.h **** 	//Return the size of the memory needed to serialize this object
  21:../source/tinyUnity/Object.h **** 	virtual int imageSize(){return sizeof(this);}
  23              		.loc 1 21 0
  24              		.cfi_startproc
  25              		@ Function supports interworking.
  26              		@ args = 0, pretend = 0, frame = 8
  27              		@ frame_needed = 1, uses_anonymous_args = 0
  28              		@ link register save eliminated.
  29 0000 04B02DE5 		str	fp, [sp, #-4]!
  30              	.LCFI0:
  31              		.cfi_def_cfa_offset 4
  32              		.cfi_offset 11, -4
  33 0004 00B08DE2 		add	fp, sp, #0
  34              	.LCFI1:
  35              		.cfi_def_cfa_register 11
  36 0008 0CD04DE2 		sub	sp, sp, #12
  37 000c 08000BE5 		str	r0, [fp, #-8]
  38              		.loc 1 21 0
  39 0010 0430A0E3 		mov	r3, #4
  40 0014 0300A0E1 		mov	r0, r3
  41 0018 00D04BE2 		sub	sp, fp, #0
  42              		@ sp needed
  43 001c 04B09DE4 		ldr	fp, [sp], #4
  44 0020 1EFF2FE1 		bx	lr
  45              		.cfi_endproc
  46              	.LFE0:
  48              		.text
  49              		.align	2
  50              		.global	_ZN9tinyUnity6ObjectC2Ev
  52              	_ZN9tinyUnity6ObjectC2Ev:
  53              	.LFB2:
  54              		.file 2 "../source/tinyUnity/Object.cpp"
   1:../source/tinyUnity/Object.cpp **** /*
   2:../source/tinyUnity/Object.cpp ****  * Object.cpp
   3:../source/tinyUnity/Object.cpp ****  *
   4:../source/tinyUnity/Object.cpp ****  *  Created on: 2013-06-21
   5:../source/tinyUnity/Object.cpp ****  *      Author: awiebe
   6:../source/tinyUnity/Object.cpp ****  */
   7:../source/tinyUnity/Object.cpp **** 
   8:../source/tinyUnity/Object.cpp **** #include "Object.h"
   9:../source/tinyUnity/Object.cpp **** //#define DEFERRED_RELEASE
  10:../source/tinyUnity/Object.cpp **** namespace tinyUnity {
  11:../source/tinyUnity/Object.cpp **** 
  12:../source/tinyUnity/Object.cpp **** Object::Object()
  55              		.loc 2 12 0
  56              		.cfi_startproc
  57              		@ Function supports interworking.
  58              		@ args = 0, pretend = 0, frame = 8
  59              		@ frame_needed = 1, uses_anonymous_args = 0
  60              		@ link register save eliminated.
  61 0000 04B02DE5 		str	fp, [sp, #-4]!
  62              	.LCFI2:
  63              		.cfi_def_cfa_offset 4
  64              		.cfi_offset 11, -4
  65 0004 00B08DE2 		add	fp, sp, #0
  66              	.LCFI3:
  67              		.cfi_def_cfa_register 11
  68 0008 0CD04DE2 		sub	sp, sp, #12
  69 000c 08000BE5 		str	r0, [fp, #-8]
  70              	.LBB2:
  71              		.loc 2 12 0
  72 0010 08301BE5 		ldr	r3, [fp, #-8]
  73 0014 20209FE5 		ldr	r2, .L6
  74 0018 002083E5 		str	r2, [r3]
  13:../source/tinyUnity/Object.cpp **** {
  14:../source/tinyUnity/Object.cpp **** 	this->referenceCount=1;
  75              		.loc 2 14 0
  76 001c 08301BE5 		ldr	r3, [fp, #-8]
  77 0020 0120A0E3 		mov	r2, #1
  78 0024 042083E5 		str	r2, [r3, #4]
  79              	.LBE2:
  15:../source/tinyUnity/Object.cpp **** 	// TODO Auto-generated constructor stub
  16:../source/tinyUnity/Object.cpp **** 
  17:../source/tinyUnity/Object.cpp **** }
  80              		.loc 2 17 0
  81 0028 08301BE5 		ldr	r3, [fp, #-8]
  82 002c 0300A0E1 		mov	r0, r3
  83 0030 00D04BE2 		sub	sp, fp, #0
  84              		@ sp needed
  85 0034 04B09DE4 		ldr	fp, [sp], #4
  86 0038 1EFF2FE1 		bx	lr
  87              	.L7:
  88              		.align	2
  89              	.L6:
  90 003c 08000000 		.word	_ZTVN9tinyUnity6ObjectE+8
  91              		.cfi_endproc
  92              	.LFE2:
  94              		.global	_ZN9tinyUnity6ObjectC1Ev
  95              		.set	_ZN9tinyUnity6ObjectC1Ev,_ZN9tinyUnity6ObjectC2Ev
  96              		.align	2
  97              		.global	_ZN9tinyUnity6ObjectD2Ev
  99              	_ZN9tinyUnity6ObjectD2Ev:
 100              	.LFB5:
  18:../source/tinyUnity/Object.cpp **** 
  19:../source/tinyUnity/Object.cpp **** Object::~Object() {
 101              		.loc 2 19 0
 102              		.cfi_startproc
 103              		@ Function supports interworking.
 104              		@ args = 0, pretend = 0, frame = 8
 105              		@ frame_needed = 1, uses_anonymous_args = 0
 106 0040 00482DE9 		stmfd	sp!, {fp, lr}
 107              	.LCFI4:
 108              		.cfi_def_cfa_offset 8
 109              		.cfi_offset 11, -8
 110              		.cfi_offset 14, -4
 111 0044 04B08DE2 		add	fp, sp, #4
 112              	.LCFI5:
 113              		.cfi_def_cfa 11, 4
 114 0048 08D04DE2 		sub	sp, sp, #8
 115 004c 08000BE5 		str	r0, [fp, #-8]
 116              	.LBB3:
 117              		.loc 2 19 0
 118 0050 08301BE5 		ldr	r3, [fp, #-8]
 119 0054 28209FE5 		ldr	r2, .L12
 120 0058 002083E5 		str	r2, [r3]
 121              	.LBE3:
  20:../source/tinyUnity/Object.cpp **** 	// TODO Auto-generated destructor stub
  21:../source/tinyUnity/Object.cpp **** }
 122              		.loc 2 21 0
 123 005c 0030A0E3 		mov	r3, #0
 124 0060 000053E3 		cmp	r3, #0
 125 0064 0100000A 		beq	.L10
 126              		.loc 2 21 0 is_stmt 0 discriminator 1
 127 0068 08001BE5 		ldr	r0, [fp, #-8]
 128 006c FEFFFFEB 		bl	_ZdlPv
 129              	.L10:
 130              		.loc 2 21 0 discriminator 2
 131 0070 08301BE5 		ldr	r3, [fp, #-8]
 132 0074 0300A0E1 		mov	r0, r3
 133 0078 04D04BE2 		sub	sp, fp, #4
 134              		@ sp needed
 135 007c 0048BDE8 		ldmfd	sp!, {fp, lr}
 136 0080 1EFF2FE1 		bx	lr
 137              	.L13:
 138              		.align	2
 139              	.L12:
 140 0084 08000000 		.word	_ZTVN9tinyUnity6ObjectE+8
 141              		.cfi_endproc
 142              	.LFE5:
 144              		.global	_ZN9tinyUnity6ObjectD1Ev
 145              		.set	_ZN9tinyUnity6ObjectD1Ev,_ZN9tinyUnity6ObjectD2Ev
 146              		.align	2
 147              		.global	_ZN9tinyUnity6ObjectD0Ev
 149              	_ZN9tinyUnity6ObjectD0Ev:
 150              	.LFB7:
  19:../source/tinyUnity/Object.cpp **** 	// TODO Auto-generated destructor stub
 151              		.loc 2 19 0 is_stmt 1
 152              		.cfi_startproc
 153              		@ Function supports interworking.
 154              		@ args = 0, pretend = 0, frame = 8
 155              		@ frame_needed = 1, uses_anonymous_args = 0
 156 0088 00482DE9 		stmfd	sp!, {fp, lr}
 157              	.LCFI6:
 158              		.cfi_def_cfa_offset 8
 159              		.cfi_offset 11, -8
 160              		.cfi_offset 14, -4
 161 008c 04B08DE2 		add	fp, sp, #4
 162              	.LCFI7:
 163              		.cfi_def_cfa 11, 4
 164 0090 08D04DE2 		sub	sp, sp, #8
 165 0094 08000BE5 		str	r0, [fp, #-8]
 166              		.loc 2 21 0
 167 0098 08001BE5 		ldr	r0, [fp, #-8]
 168 009c FEFFFFEB 		bl	_ZN9tinyUnity6ObjectD1Ev
 169 00a0 08001BE5 		ldr	r0, [fp, #-8]
 170 00a4 FEFFFFEB 		bl	_ZdlPv
 171 00a8 08301BE5 		ldr	r3, [fp, #-8]
 172 00ac 0300A0E1 		mov	r0, r3
 173 00b0 04D04BE2 		sub	sp, fp, #4
 174              		@ sp needed
 175 00b4 0048BDE8 		ldmfd	sp!, {fp, lr}
 176 00b8 1EFF2FE1 		bx	lr
 177              		.cfi_endproc
 178              	.LFE7:
 180              		.align	2
 181              		.global	_ZN9tinyUnity6Object6retainEv
 183              	_ZN9tinyUnity6Object6retainEv:
 184              	.LFB8:
  22:../source/tinyUnity/Object.cpp **** 
  23:../source/tinyUnity/Object.cpp **** Object* Object::retain()
  24:../source/tinyUnity/Object.cpp **** {
 185              		.loc 2 24 0
 186              		.cfi_startproc
 187              		@ Function supports interworking.
 188              		@ args = 0, pretend = 0, frame = 8
 189              		@ frame_needed = 1, uses_anonymous_args = 0
 190              		@ link register save eliminated.
 191 00bc 04B02DE5 		str	fp, [sp, #-4]!
 192              	.LCFI8:
 193              		.cfi_def_cfa_offset 4
 194              		.cfi_offset 11, -4
 195 00c0 00B08DE2 		add	fp, sp, #0
 196              	.LCFI9:
 197              		.cfi_def_cfa_register 11
 198 00c4 0CD04DE2 		sub	sp, sp, #12
 199 00c8 08000BE5 		str	r0, [fp, #-8]
  25:../source/tinyUnity/Object.cpp **** 	this->referenceCount++;
 200              		.loc 2 25 0
 201 00cc 08301BE5 		ldr	r3, [fp, #-8]
 202 00d0 043093E5 		ldr	r3, [r3, #4]
 203 00d4 012083E2 		add	r2, r3, #1
 204 00d8 08301BE5 		ldr	r3, [fp, #-8]
 205 00dc 042083E5 		str	r2, [r3, #4]
  26:../source/tinyUnity/Object.cpp **** 	return this;
 206              		.loc 2 26 0
 207 00e0 08301BE5 		ldr	r3, [fp, #-8]
  27:../source/tinyUnity/Object.cpp **** }
 208              		.loc 2 27 0
 209 00e4 0300A0E1 		mov	r0, r3
 210 00e8 00D04BE2 		sub	sp, fp, #0
 211              		@ sp needed
 212 00ec 04B09DE4 		ldr	fp, [sp], #4
 213 00f0 1EFF2FE1 		bx	lr
 214              		.cfi_endproc
 215              	.LFE8:
 217              		.align	2
 218              		.global	_ZN9tinyUnity6Object7destroyEv
 220              	_ZN9tinyUnity6Object7destroyEv:
 221              	.LFB9:
  28:../source/tinyUnity/Object.cpp **** 
  29:../source/tinyUnity/Object.cpp **** void Object::destroy()
  30:../source/tinyUnity/Object.cpp **** {
 222              		.loc 2 30 0
 223              		.cfi_startproc
 224              		@ Function supports interworking.
 225              		@ args = 0, pretend = 0, frame = 8
 226              		@ frame_needed = 1, uses_anonymous_args = 0
 227 00f4 00482DE9 		stmfd	sp!, {fp, lr}
 228              	.LCFI10:
 229              		.cfi_def_cfa_offset 8
 230              		.cfi_offset 11, -8
 231              		.cfi_offset 14, -4
 232 00f8 04B08DE2 		add	fp, sp, #4
 233              	.LCFI11:
 234              		.cfi_def_cfa 11, 4
 235 00fc 08D04DE2 		sub	sp, sp, #8
 236 0100 08000BE5 		str	r0, [fp, #-8]
  31:../source/tinyUnity/Object.cpp **** #if TINY_UNITY_DEFFERED_RELEASE
  32:../source/tinyUnity/Object.cpp **** 	#error "Deferred release system not implemented, implement or set TINY_UNITY_DEFERRED_RELEASE to 0
  33:../source/tinyUnity/Object.cpp **** #else
  34:../source/tinyUnity/Object.cpp **** 	destroyImmediate();
 237              		.loc 2 34 0
 238 0104 08001BE5 		ldr	r0, [fp, #-8]
 239 0108 FEFFFFEB 		bl	_ZN9tinyUnity6Object16destroyImmediateEv
  35:../source/tinyUnity/Object.cpp **** #endif
  36:../source/tinyUnity/Object.cpp **** }
 240              		.loc 2 36 0
 241 010c 04D04BE2 		sub	sp, fp, #4
 242              		@ sp needed
 243 0110 0048BDE8 		ldmfd	sp!, {fp, lr}
 244 0114 1EFF2FE1 		bx	lr
 245              		.cfi_endproc
 246              	.LFE9:
 248              		.align	2
 249              		.global	_ZN9tinyUnity6Object16destroyImmediateEv
 251              	_ZN9tinyUnity6Object16destroyImmediateEv:
 252              	.LFB10:
  37:../source/tinyUnity/Object.cpp **** 
  38:../source/tinyUnity/Object.cpp **** void Object::destroyImmediate()
  39:../source/tinyUnity/Object.cpp **** {
 253              		.loc 2 39 0
 254              		.cfi_startproc
 255              		@ Function supports interworking.
 256              		@ args = 0, pretend = 0, frame = 8
 257              		@ frame_needed = 1, uses_anonymous_args = 0
 258 0118 00482DE9 		stmfd	sp!, {fp, lr}
 259              	.LCFI12:
 260              		.cfi_def_cfa_offset 8
 261              		.cfi_offset 11, -8
 262              		.cfi_offset 14, -4
 263 011c 04B08DE2 		add	fp, sp, #4
 264              	.LCFI13:
 265              		.cfi_def_cfa 11, 4
 266 0120 08D04DE2 		sub	sp, sp, #8
 267 0124 08000BE5 		str	r0, [fp, #-8]
  40:../source/tinyUnity/Object.cpp **** 	delete this;
 268              		.loc 2 40 0
 269 0128 08301BE5 		ldr	r3, [fp, #-8]
 270 012c 000053E3 		cmp	r3, #0
 271 0130 0600000A 		beq	.L20
 272              		.loc 2 40 0 is_stmt 0 discriminator 1
 273 0134 08301BE5 		ldr	r3, [fp, #-8]
 274 0138 003093E5 		ldr	r3, [r3]
 275 013c 043083E2 		add	r3, r3, #4
 276 0140 003093E5 		ldr	r3, [r3]
 277 0144 08001BE5 		ldr	r0, [fp, #-8]
 278 0148 0FE0A0E1 		mov	lr, pc
 279 014c 13FF2FE1 		bx	r3
 280              	.L20:
  41:../source/tinyUnity/Object.cpp **** }
 281              		.loc 2 41 0 is_stmt 1
 282 0150 04D04BE2 		sub	sp, fp, #4
 283              		@ sp needed
 284 0154 0048BDE8 		ldmfd	sp!, {fp, lr}
 285 0158 1EFF2FE1 		bx	lr
 286              		.cfi_endproc
 287              	.LFE10:
 289              		.align	2
 290              		.global	_ZN9tinyUnity6Object7releaseEv
 292              	_ZN9tinyUnity6Object7releaseEv:
 293              	.LFB11:
  42:../source/tinyUnity/Object.cpp **** 
  43:../source/tinyUnity/Object.cpp **** int Object::release()
  44:../source/tinyUnity/Object.cpp **** {
 294              		.loc 2 44 0
 295              		.cfi_startproc
 296              		@ Function supports interworking.
 297              		@ args = 0, pretend = 0, frame = 8
 298              		@ frame_needed = 1, uses_anonymous_args = 0
 299 015c 00482DE9 		stmfd	sp!, {fp, lr}
 300              	.LCFI14:
 301              		.cfi_def_cfa_offset 8
 302              		.cfi_offset 11, -8
 303              		.cfi_offset 14, -4
 304 0160 04B08DE2 		add	fp, sp, #4
 305              	.LCFI15:
 306              		.cfi_def_cfa 11, 4
 307 0164 08D04DE2 		sub	sp, sp, #8
 308 0168 08000BE5 		str	r0, [fp, #-8]
  45:../source/tinyUnity/Object.cpp **** 	this->referenceCount--;
 309              		.loc 2 45 0
 310 016c 08301BE5 		ldr	r3, [fp, #-8]
 311 0170 043093E5 		ldr	r3, [r3, #4]
 312 0174 012043E2 		sub	r2, r3, #1
 313 0178 08301BE5 		ldr	r3, [fp, #-8]
 314 017c 042083E5 		str	r2, [r3, #4]
  46:../source/tinyUnity/Object.cpp **** 	if(this->referenceCount <= 0)
 315              		.loc 2 46 0
 316 0180 08301BE5 		ldr	r3, [fp, #-8]
 317 0184 043093E5 		ldr	r3, [r3, #4]
 318 0188 000053E3 		cmp	r3, #0
 319 018c 010000CA 		bgt	.L23
  47:../source/tinyUnity/Object.cpp **** 	{
  48:../source/tinyUnity/Object.cpp **** 	destroy();
 320              		.loc 2 48 0
 321 0190 08001BE5 		ldr	r0, [fp, #-8]
 322 0194 FEFFFFEB 		bl	_ZN9tinyUnity6Object7destroyEv
 323              	.L23:
  49:../source/tinyUnity/Object.cpp **** 	}
  50:../source/tinyUnity/Object.cpp **** 	return this->referenceCount;
 324              		.loc 2 50 0
 325 0198 08301BE5 		ldr	r3, [fp, #-8]
 326 019c 043093E5 		ldr	r3, [r3, #4]
  51:../source/tinyUnity/Object.cpp **** }
 327              		.loc 2 51 0
 328 01a0 0300A0E1 		mov	r0, r3
 329 01a4 04D04BE2 		sub	sp, fp, #4
 330              		@ sp needed
 331 01a8 0048BDE8 		ldmfd	sp!, {fp, lr}
 332 01ac 1EFF2FE1 		bx	lr
 333              		.cfi_endproc
 334              	.LFE11:
 336              		.global	_ZTVN9tinyUnity6ObjectE
 337              		.section	.rodata
 338              		.align	3
 341              	_ZTVN9tinyUnity6ObjectE:
 342 0000 00000000 		.word	0
 343 0004 00000000 		.word	0
 344 0008 00000000 		.word	_ZN9tinyUnity6ObjectD1Ev
 345 000c 00000000 		.word	_ZN9tinyUnity6ObjectD0Ev
 346 0010 00000000 		.word	_ZN9tinyUnity6Object9imageSizeEv
 347 0014 00000000 		.word	_ZN9tinyUnity6Object9serializeEv
 348 0018 00000000 		.word	_ZN9tinyUnity6Object11deserializeEPc
 349 001c 00000000 		.text
 350              	.Letext0: