   1              		.cpu arm9
   2              		.fpu softvfp
   3              		.eabi_attribute 20, 1
   4              		.eabi_attribute 21, 1
   5              		.eabi_attribute 23, 3
   6              		.eabi_attribute 24, 1
   7              		.eabi_attribute 25, 1
   8              		.eabi_attribute 26, 1
   9              		.eabi_attribute 30, 6
  10              		.eabi_attribute 34, 0
  11              		.eabi_attribute 18, 4
  12              		.file	"Vector3.cpp"
  13              		.text
  14              	.Ltext0:
  15              		.cfi_sections	.debug_frame
  16              		.align	2
  18              	_ZL7sqrtf32l:
  19              	.LFB31:
  20              		.file 1 "/Users/awiebe/devkitPro/libnds/include/nds/arm9/math.h"
   1:/Users/awiebe/devkitPro/libnds/include/nds/arm9/math.h **** /*---------------------------------------------------------------------------------
   2:/Users/awiebe/devkitPro/libnds/include/nds/arm9/math.h **** 
   3:/Users/awiebe/devkitPro/libnds/include/nds/arm9/math.h **** 	math functions
   4:/Users/awiebe/devkitPro/libnds/include/nds/arm9/math.h **** 
   5:/Users/awiebe/devkitPro/libnds/include/nds/arm9/math.h **** 	Copyright (C) 2005
   6:/Users/awiebe/devkitPro/libnds/include/nds/arm9/math.h **** 		Michael Noland (joat)
   7:/Users/awiebe/devkitPro/libnds/include/nds/arm9/math.h **** 		Jason Rogers (dovoto)
   8:/Users/awiebe/devkitPro/libnds/include/nds/arm9/math.h **** 		Dave Murphy (WinterMute)
   9:/Users/awiebe/devkitPro/libnds/include/nds/arm9/math.h **** 
  10:/Users/awiebe/devkitPro/libnds/include/nds/arm9/math.h **** 	This software is provided 'as-is', without any express or implied
  11:/Users/awiebe/devkitPro/libnds/include/nds/arm9/math.h **** 	warranty.  In no event will the authors be held liable for any
  12:/Users/awiebe/devkitPro/libnds/include/nds/arm9/math.h **** 	damages arising from the use of this software.
  13:/Users/awiebe/devkitPro/libnds/include/nds/arm9/math.h **** 
  14:/Users/awiebe/devkitPro/libnds/include/nds/arm9/math.h **** 	Permission is granted to anyone to use this software for any
  15:/Users/awiebe/devkitPro/libnds/include/nds/arm9/math.h **** 	purpose, including commercial applications, and to alter it and
  16:/Users/awiebe/devkitPro/libnds/include/nds/arm9/math.h **** 	redistribute it freely, subject to the following restrictions:
  17:/Users/awiebe/devkitPro/libnds/include/nds/arm9/math.h **** 
  18:/Users/awiebe/devkitPro/libnds/include/nds/arm9/math.h **** 	1.	The origin of this software must not be misrepresented; you
  19:/Users/awiebe/devkitPro/libnds/include/nds/arm9/math.h **** 		must not claim that you wrote the original software. If you use
  20:/Users/awiebe/devkitPro/libnds/include/nds/arm9/math.h **** 		this software in a product, an acknowledgment in the product
  21:/Users/awiebe/devkitPro/libnds/include/nds/arm9/math.h **** 		documentation would be appreciated but is not required.
  22:/Users/awiebe/devkitPro/libnds/include/nds/arm9/math.h **** 	2.	Altered source versions must be plainly marked as such, and
  23:/Users/awiebe/devkitPro/libnds/include/nds/arm9/math.h **** 		must not be misrepresented as being the original software.
  24:/Users/awiebe/devkitPro/libnds/include/nds/arm9/math.h **** 	3.	This notice may not be removed or altered from any source
  25:/Users/awiebe/devkitPro/libnds/include/nds/arm9/math.h **** 		distribution.
  26:/Users/awiebe/devkitPro/libnds/include/nds/arm9/math.h **** 
  27:/Users/awiebe/devkitPro/libnds/include/nds/arm9/math.h **** ---------------------------------------------------------------------------------*/
  28:/Users/awiebe/devkitPro/libnds/include/nds/arm9/math.h **** /*!	\file math.h
  29:/Users/awiebe/devkitPro/libnds/include/nds/arm9/math.h **** 	\brief hardware coprocessor math instructions.
  30:/Users/awiebe/devkitPro/libnds/include/nds/arm9/math.h **** */
  31:/Users/awiebe/devkitPro/libnds/include/nds/arm9/math.h **** 
  32:/Users/awiebe/devkitPro/libnds/include/nds/arm9/math.h **** #ifndef MATH_ARM9_INCLUDE
  33:/Users/awiebe/devkitPro/libnds/include/nds/arm9/math.h **** #define MATH_ARM9_INCLUDE
  34:/Users/awiebe/devkitPro/libnds/include/nds/arm9/math.h **** 
  35:/Users/awiebe/devkitPro/libnds/include/nds/arm9/math.h **** #include "nds/ndstypes.h"
  36:/Users/awiebe/devkitPro/libnds/include/nds/arm9/math.h **** 
  37:/Users/awiebe/devkitPro/libnds/include/nds/arm9/math.h **** 
  38:/Users/awiebe/devkitPro/libnds/include/nds/arm9/math.h **** #define REG_DIVCNT			(*(vu16*)(0x04000280))
  39:/Users/awiebe/devkitPro/libnds/include/nds/arm9/math.h **** #define REG_DIV_NUMER		(*(vs64*) (0x04000290))
  40:/Users/awiebe/devkitPro/libnds/include/nds/arm9/math.h **** #define REG_DIV_NUMER_L		(*(vs32*) (0x04000290))
  41:/Users/awiebe/devkitPro/libnds/include/nds/arm9/math.h **** #define REG_DIV_NUMER_H		(*(vs32*) (0x04000294))
  42:/Users/awiebe/devkitPro/libnds/include/nds/arm9/math.h **** #define REG_DIV_DENOM		(*(vs64*) (0x04000298))
  43:/Users/awiebe/devkitPro/libnds/include/nds/arm9/math.h **** #define REG_DIV_DENOM_L		(*(vs32*) (0x04000298))
  44:/Users/awiebe/devkitPro/libnds/include/nds/arm9/math.h **** #define REG_DIV_DENOM_H		(*(vs32*) (0x0400029C))
  45:/Users/awiebe/devkitPro/libnds/include/nds/arm9/math.h **** #define REG_DIV_RESULT		(*(vs64*) (0x040002A0))
  46:/Users/awiebe/devkitPro/libnds/include/nds/arm9/math.h **** #define REG_DIV_RESULT_L	(*(vs32*) (0x040002A0))
  47:/Users/awiebe/devkitPro/libnds/include/nds/arm9/math.h **** #define REG_DIV_RESULT_H	(*(vs32*) (0x040002A4))
  48:/Users/awiebe/devkitPro/libnds/include/nds/arm9/math.h **** #define REG_DIVREM_RESULT	(*(vs64*) (0x040002A8))
  49:/Users/awiebe/devkitPro/libnds/include/nds/arm9/math.h **** #define REG_DIVREM_RESULT_L	(*(vs32*) (0x040002A8))
  50:/Users/awiebe/devkitPro/libnds/include/nds/arm9/math.h **** #define REG_DIVREM_RESULT_H	(*(vs32*) (0x040002AC))
  51:/Users/awiebe/devkitPro/libnds/include/nds/arm9/math.h **** 
  52:/Users/awiebe/devkitPro/libnds/include/nds/arm9/math.h **** #define REG_SQRTCNT			(*(vu16*)(0x040002B0))
  53:/Users/awiebe/devkitPro/libnds/include/nds/arm9/math.h **** #define REG_SQRT_PARAM		(*(vs64*) (0x040002B8))
  54:/Users/awiebe/devkitPro/libnds/include/nds/arm9/math.h **** #define REG_SQRT_PARAM_L	(*(vs32*) (0x040002B8))
  55:/Users/awiebe/devkitPro/libnds/include/nds/arm9/math.h **** #define REG_SQRT_PARAM_H	(*(vs32*) (0x040002BC))
  56:/Users/awiebe/devkitPro/libnds/include/nds/arm9/math.h **** #define REG_SQRT_RESULT		(*(vu32*) (0x040002B4))
  57:/Users/awiebe/devkitPro/libnds/include/nds/arm9/math.h **** 
  58:/Users/awiebe/devkitPro/libnds/include/nds/arm9/math.h **** //  Math coprocessor modes
  59:/Users/awiebe/devkitPro/libnds/include/nds/arm9/math.h **** 
  60:/Users/awiebe/devkitPro/libnds/include/nds/arm9/math.h **** #define DIV_64_64			2
  61:/Users/awiebe/devkitPro/libnds/include/nds/arm9/math.h **** #define DIV_64_32			1
  62:/Users/awiebe/devkitPro/libnds/include/nds/arm9/math.h **** #define DIV_32_32			0
  63:/Users/awiebe/devkitPro/libnds/include/nds/arm9/math.h **** #define DIV_BUSY			(1<<15)
  64:/Users/awiebe/devkitPro/libnds/include/nds/arm9/math.h **** 
  65:/Users/awiebe/devkitPro/libnds/include/nds/arm9/math.h **** #define SQRT_64				1
  66:/Users/awiebe/devkitPro/libnds/include/nds/arm9/math.h **** #define SQRT_32				0
  67:/Users/awiebe/devkitPro/libnds/include/nds/arm9/math.h **** #define SQRT_BUSY			(1<<15)
  68:/Users/awiebe/devkitPro/libnds/include/nds/arm9/math.h **** 
  69:/Users/awiebe/devkitPro/libnds/include/nds/arm9/math.h **** //  Fixed point conversion macros
  70:/Users/awiebe/devkitPro/libnds/include/nds/arm9/math.h **** 
  71:/Users/awiebe/devkitPro/libnds/include/nds/arm9/math.h **** #define inttof32(n)          ((n) << 12) /*!< \brief convert int to f32 */
  72:/Users/awiebe/devkitPro/libnds/include/nds/arm9/math.h **** #define f32toint(n)          ((n) >> 12) /*!< \brief convert f32 to int */
  73:/Users/awiebe/devkitPro/libnds/include/nds/arm9/math.h **** #define floattof32(n)        ((int)((n) * (1 << 12))) /*!< \brief convert float to f32 */
  74:/Users/awiebe/devkitPro/libnds/include/nds/arm9/math.h **** #define f32tofloat(n)        (((float)(n)) / (float)(1<<12)) /*!< \brief convert f32 to float */
  75:/Users/awiebe/devkitPro/libnds/include/nds/arm9/math.h **** 
  76:/Users/awiebe/devkitPro/libnds/include/nds/arm9/math.h **** //  Fixed Point versions
  77:/Users/awiebe/devkitPro/libnds/include/nds/arm9/math.h **** 
  78:/Users/awiebe/devkitPro/libnds/include/nds/arm9/math.h **** static inline
  79:/Users/awiebe/devkitPro/libnds/include/nds/arm9/math.h **** /**
  80:/Users/awiebe/devkitPro/libnds/include/nds/arm9/math.h **** *    \brief Fixed point divide
  81:/Users/awiebe/devkitPro/libnds/include/nds/arm9/math.h **** *    \param num Takes 20.12 numerator.
  82:/Users/awiebe/devkitPro/libnds/include/nds/arm9/math.h **** *    \param den Takes 20.12 denominator.
  83:/Users/awiebe/devkitPro/libnds/include/nds/arm9/math.h **** *    \return returns 20.12 result.
  84:/Users/awiebe/devkitPro/libnds/include/nds/arm9/math.h **** */
  85:/Users/awiebe/devkitPro/libnds/include/nds/arm9/math.h **** int32 divf32(int32 num, int32 den)
  86:/Users/awiebe/devkitPro/libnds/include/nds/arm9/math.h **** {
  87:/Users/awiebe/devkitPro/libnds/include/nds/arm9/math.h **** 	REG_DIVCNT = DIV_64_32;
  88:/Users/awiebe/devkitPro/libnds/include/nds/arm9/math.h **** 
  89:/Users/awiebe/devkitPro/libnds/include/nds/arm9/math.h **** 	while(REG_DIVCNT & DIV_BUSY);
  90:/Users/awiebe/devkitPro/libnds/include/nds/arm9/math.h **** 
  91:/Users/awiebe/devkitPro/libnds/include/nds/arm9/math.h **** 	REG_DIV_NUMER = ((int64)num) << 12;
  92:/Users/awiebe/devkitPro/libnds/include/nds/arm9/math.h **** 	REG_DIV_DENOM_L = den;
  93:/Users/awiebe/devkitPro/libnds/include/nds/arm9/math.h **** 
  94:/Users/awiebe/devkitPro/libnds/include/nds/arm9/math.h **** 	while(REG_DIVCNT & DIV_BUSY);
  95:/Users/awiebe/devkitPro/libnds/include/nds/arm9/math.h **** 
  96:/Users/awiebe/devkitPro/libnds/include/nds/arm9/math.h **** 	return (REG_DIV_RESULT_L);
  97:/Users/awiebe/devkitPro/libnds/include/nds/arm9/math.h **** }
  98:/Users/awiebe/devkitPro/libnds/include/nds/arm9/math.h **** 
  99:/Users/awiebe/devkitPro/libnds/include/nds/arm9/math.h **** static inline
 100:/Users/awiebe/devkitPro/libnds/include/nds/arm9/math.h **** /**
 101:/Users/awiebe/devkitPro/libnds/include/nds/arm9/math.h **** *   \brief Fixed point multiply
 102:/Users/awiebe/devkitPro/libnds/include/nds/arm9/math.h **** *   \param a Takes 20.12
 103:/Users/awiebe/devkitPro/libnds/include/nds/arm9/math.h **** *   \param b Takes 20.12
 104:/Users/awiebe/devkitPro/libnds/include/nds/arm9/math.h **** *   \return returns 20.12 result
 105:/Users/awiebe/devkitPro/libnds/include/nds/arm9/math.h **** */
 106:/Users/awiebe/devkitPro/libnds/include/nds/arm9/math.h **** int32 mulf32(int32 a, int32 b)
 107:/Users/awiebe/devkitPro/libnds/include/nds/arm9/math.h **** {
 108:/Users/awiebe/devkitPro/libnds/include/nds/arm9/math.h **** 	long long result = (long long)a * (long long)b;
 109:/Users/awiebe/devkitPro/libnds/include/nds/arm9/math.h **** 	return (int32)(result >> 12);
 110:/Users/awiebe/devkitPro/libnds/include/nds/arm9/math.h **** }
 111:/Users/awiebe/devkitPro/libnds/include/nds/arm9/math.h **** 
 112:/Users/awiebe/devkitPro/libnds/include/nds/arm9/math.h **** static inline
 113:/Users/awiebe/devkitPro/libnds/include/nds/arm9/math.h **** /**
 114:/Users/awiebe/devkitPro/libnds/include/nds/arm9/math.h **** *   \brief Fixed point sqrt
 115:/Users/awiebe/devkitPro/libnds/include/nds/arm9/math.h **** *   \param a Takes 20.12
 116:/Users/awiebe/devkitPro/libnds/include/nds/arm9/math.h **** *   \return returns 20.12 result
 117:/Users/awiebe/devkitPro/libnds/include/nds/arm9/math.h **** */
 118:/Users/awiebe/devkitPro/libnds/include/nds/arm9/math.h **** int32 sqrtf32(int32 a)
 119:/Users/awiebe/devkitPro/libnds/include/nds/arm9/math.h **** {
  21              		.loc 1 119 0
  22              		.cfi_startproc
  23              		@ Function supports interworking.
  24              		@ args = 0, pretend = 0, frame = 8
  25              		@ frame_needed = 1, uses_anonymous_args = 0
  26              		@ link register save eliminated.
  27 0000 10082DE9 		stmfd	sp!, {r4, fp}
  28              	.LCFI0:
  29              		.cfi_def_cfa_offset 8
  30              		.cfi_offset 4, -8
  31              		.cfi_offset 11, -4
  32 0004 04B08DE2 		add	fp, sp, #4
  33              	.LCFI1:
  34              		.cfi_def_cfa 11, 4
  35 0008 08D04DE2 		sub	sp, sp, #8
  36 000c 08000BE5 		str	r0, [fp, #-8]
 120:/Users/awiebe/devkitPro/libnds/include/nds/arm9/math.h **** 	REG_SQRTCNT = SQRT_64;
  37              		.loc 1 120 0
  38 0010 8C209FE5 		ldr	r2, .L5
  39 0014 0110A0E3 		mov	r1, #1
  40 0018 B010C2E1 		strh	r1, [r2]	@ movhi
  41              	.L2:
 121:/Users/awiebe/devkitPro/libnds/include/nds/arm9/math.h **** 
 122:/Users/awiebe/devkitPro/libnds/include/nds/arm9/math.h **** 	while(REG_SQRTCNT & SQRT_BUSY);
  42              		.loc 1 122 0 discriminator 1
  43 001c 80209FE5 		ldr	r2, .L5
  44 0020 B020D2E1 		ldrh	r2, [r2]	@ movhi
  45 0024 0228A0E1 		mov	r2, r2, asl #16
  46 0028 2228A0E1 		mov	r2, r2, lsr #16
  47 002c 0228A0E1 		mov	r2, r2, asl #16
  48 0030 2228A0E1 		mov	r2, r2, lsr #16
  49 0034 A227A0E1 		mov	r2, r2, lsr #15
  50 0038 FF2002E2 		and	r2, r2, #255
  51 003c 000052E3 		cmp	r2, #0
  52 0040 F5FFFF1A 		bne	.L2
 123:/Users/awiebe/devkitPro/libnds/include/nds/arm9/math.h **** 
 124:/Users/awiebe/devkitPro/libnds/include/nds/arm9/math.h **** 	REG_SQRT_PARAM = ((int64)a) << 12;
  53              		.loc 1 124 0
  54 0044 5C009FE5 		ldr	r0, .L5+4
  55 0048 08201BE5 		ldr	r2, [fp, #-8]
  56 004c 0210A0E1 		mov	r1, r2
  57 0050 C12FA0E1 		mov	r2, r1, asr #31
  58 0054 0246A0E1 		mov	r4, r2, asl #12
  59 0058 214A84E1 		orr	r4, r4, r1, lsr #20
  60 005c 0136A0E1 		mov	r3, r1, asl #12
  61 0060 180080E8 		stmia	r0, {r3-r4}
  62              	.L3:
 125:/Users/awiebe/devkitPro/libnds/include/nds/arm9/math.h **** 
 126:/Users/awiebe/devkitPro/libnds/include/nds/arm9/math.h **** 	while(REG_SQRTCNT & SQRT_BUSY);
  63              		.loc 1 126 0 discriminator 1
  64 0064 38309FE5 		ldr	r3, .L5
  65 0068 B030D3E1 		ldrh	r3, [r3]	@ movhi
  66 006c 0338A0E1 		mov	r3, r3, asl #16
  67 0070 2338A0E1 		mov	r3, r3, lsr #16
  68 0074 0338A0E1 		mov	r3, r3, asl #16
  69 0078 2338A0E1 		mov	r3, r3, lsr #16
  70 007c A337A0E1 		mov	r3, r3, lsr #15
  71 0080 FF3003E2 		and	r3, r3, #255
  72 0084 000053E3 		cmp	r3, #0
  73 0088 F5FFFF1A 		bne	.L3
 127:/Users/awiebe/devkitPro/libnds/include/nds/arm9/math.h **** 
 128:/Users/awiebe/devkitPro/libnds/include/nds/arm9/math.h **** 	return REG_SQRT_RESULT;
  74              		.loc 1 128 0
  75 008c 18309FE5 		ldr	r3, .L5+8
  76 0090 003093E5 		ldr	r3, [r3]
 129:/Users/awiebe/devkitPro/libnds/include/nds/arm9/math.h **** }
  77              		.loc 1 129 0
  78 0094 0300A0E1 		mov	r0, r3
  79 0098 04D04BE2 		sub	sp, fp, #4
  80              		@ sp needed
  81 009c 1008BDE8 		ldmfd	sp!, {r4, fp}
  82 00a0 1EFF2FE1 		bx	lr
  83              	.L6:
  84              		.align	2
  85              	.L5:
  86 00a4 B0020004 		.word	67109552
  87 00a8 B8020004 		.word	67109560
  88 00ac B4020004 		.word	67109556
  89              		.cfi_endproc
  90              	.LFE31:
  92              		.data
  93              		.align	2
  96              	_ZL6glGlob:
  97 0000 00000000 		.word	glGlobalData
  98              		.text
  99              		.align	2
 100              		.global	_ZN9tinyUnity7Vector3C2Ev
 102              	_ZN9tinyUnity7Vector3C2Ev:
 103              	.LFB187:
 104              		.file 2 "../source/tinyUnity/Vector3.cpp"
   1:../source/tinyUnity/Vector3.cpp **** /*
   2:../source/tinyUnity/Vector3.cpp ****  * Vector3.cpp
   3:../source/tinyUnity/Vector3.cpp ****  *
   4:../source/tinyUnity/Vector3.cpp ****  *  Created on: 2013-06-15
   5:../source/tinyUnity/Vector3.cpp ****  *      Author: awiebe
   6:../source/tinyUnity/Vector3.cpp ****  */
   7:../source/tinyUnity/Vector3.cpp **** 
   8:../source/tinyUnity/Vector3.cpp **** #include "Vector3.h"
   9:../source/tinyUnity/Vector3.cpp **** #include <nds.h>
  10:../source/tinyUnity/Vector3.cpp **** #include <nds/arm9/videoGL.h>
  11:../source/tinyUnity/Vector3.cpp **** 
  12:../source/tinyUnity/Vector3.cpp **** namespace tinyUnity{
  13:../source/tinyUnity/Vector3.cpp **** Vector3::Vector3()
 105              		.loc 2 13 0
 106              		.cfi_startproc
 107              		@ Function supports interworking.
 108              		@ args = 0, pretend = 0, frame = 8
 109              		@ frame_needed = 1, uses_anonymous_args = 0
 110              		@ link register save eliminated.
 111 00b0 04B02DE5 		str	fp, [sp, #-4]!
 112              	.LCFI2:
 113              		.cfi_def_cfa_offset 4
 114              		.cfi_offset 11, -4
 115 00b4 00B08DE2 		add	fp, sp, #0
 116              	.LCFI3:
 117              		.cfi_def_cfa_register 11
 118 00b8 0CD04DE2 		sub	sp, sp, #12
 119 00bc 08000BE5 		str	r0, [fp, #-8]
 120              	.LBB2:
 121              		.loc 2 13 0
 122 00c0 08301BE5 		ldr	r3, [fp, #-8]
 123 00c4 20209FE5 		ldr	r2, .L10
 124 00c8 002083E5 		str	r2, [r3]
  14:../source/tinyUnity/Vector3.cpp **** {
  15:../source/tinyUnity/Vector3.cpp **** 	x,y,z = 0;
 125              		.loc 2 15 0
 126 00cc 08301BE5 		ldr	r3, [fp, #-8]
 127 00d0 0020A0E3 		mov	r2, #0
 128 00d4 B820C3E1 		strh	r2, [r3, #8]	@ movhi
 129              	.LBE2:
  16:../source/tinyUnity/Vector3.cpp **** 	// TODO Auto-generated constructor stub
  17:../source/tinyUnity/Vector3.cpp **** 
  18:../source/tinyUnity/Vector3.cpp **** }
 130              		.loc 2 18 0
 131 00d8 08301BE5 		ldr	r3, [fp, #-8]
 132 00dc 0300A0E1 		mov	r0, r3
 133 00e0 00D04BE2 		sub	sp, fp, #0
 134              		@ sp needed
 135 00e4 04B09DE4 		ldr	fp, [sp], #4
 136 00e8 1EFF2FE1 		bx	lr
 137              	.L11:
 138              		.align	2
 139              	.L10:
 140 00ec 08000000 		.word	_ZTVN9tinyUnity7Vector3E+8
 141              		.cfi_endproc
 142              	.LFE187:
 144              		.global	_ZN9tinyUnity7Vector3C1Ev
 145              		.set	_ZN9tinyUnity7Vector3C1Ev,_ZN9tinyUnity7Vector3C2Ev
 146              		.align	2
 147              		.global	_ZN9tinyUnity7Vector3D2Ev
 149              	_ZN9tinyUnity7Vector3D2Ev:
 150              	.LFB190:
  19:../source/tinyUnity/Vector3.cpp **** 
  20:../source/tinyUnity/Vector3.cpp **** Vector3::~Vector3() {
 151              		.loc 2 20 0
 152              		.cfi_startproc
 153              		@ Function supports interworking.
 154              		@ args = 0, pretend = 0, frame = 8
 155              		@ frame_needed = 1, uses_anonymous_args = 0
 156 00f0 00482DE9 		stmfd	sp!, {fp, lr}
 157              	.LCFI4:
 158              		.cfi_def_cfa_offset 8
 159              		.cfi_offset 11, -8
 160              		.cfi_offset 14, -4
 161 00f4 04B08DE2 		add	fp, sp, #4
 162              	.LCFI5:
 163              		.cfi_def_cfa 11, 4
 164 00f8 08D04DE2 		sub	sp, sp, #8
 165 00fc 08000BE5 		str	r0, [fp, #-8]
 166              	.LBB3:
 167              		.loc 2 20 0
 168 0100 08301BE5 		ldr	r3, [fp, #-8]
 169 0104 28209FE5 		ldr	r2, .L16
 170 0108 002083E5 		str	r2, [r3]
 171              	.LBE3:
  21:../source/tinyUnity/Vector3.cpp **** 	// TODO Auto-generated destructor stub
  22:../source/tinyUnity/Vector3.cpp **** }
 172              		.loc 2 22 0
 173 010c 0030A0E3 		mov	r3, #0
 174 0110 000053E3 		cmp	r3, #0
 175 0114 0100000A 		beq	.L14
 176              		.loc 2 22 0 is_stmt 0 discriminator 1
 177 0118 08001BE5 		ldr	r0, [fp, #-8]
 178 011c FEFFFFEB 		bl	_ZdlPv
 179              	.L14:
 180              		.loc 2 22 0 discriminator 2
 181 0120 08301BE5 		ldr	r3, [fp, #-8]
 182 0124 0300A0E1 		mov	r0, r3
 183 0128 04D04BE2 		sub	sp, fp, #4
 184              		@ sp needed
 185 012c 0048BDE8 		ldmfd	sp!, {fp, lr}
 186 0130 1EFF2FE1 		bx	lr
 187              	.L17:
 188              		.align	2
 189              	.L16:
 190 0134 08000000 		.word	_ZTVN9tinyUnity7Vector3E+8
 191              		.cfi_endproc
 192              	.LFE190:
 194              		.global	_ZN9tinyUnity7Vector3D1Ev
 195              		.set	_ZN9tinyUnity7Vector3D1Ev,_ZN9tinyUnity7Vector3D2Ev
 196              		.align	2
 197              		.global	_ZN9tinyUnity7Vector3D0Ev
 199              	_ZN9tinyUnity7Vector3D0Ev:
 200              	.LFB192:
  20:../source/tinyUnity/Vector3.cpp **** 	// TODO Auto-generated destructor stub
 201              		.loc 2 20 0 is_stmt 1
 202              		.cfi_startproc
 203              		@ Function supports interworking.
 204              		@ args = 0, pretend = 0, frame = 8
 205              		@ frame_needed = 1, uses_anonymous_args = 0
 206 0138 00482DE9 		stmfd	sp!, {fp, lr}
 207              	.LCFI6:
 208              		.cfi_def_cfa_offset 8
 209              		.cfi_offset 11, -8
 210              		.cfi_offset 14, -4
 211 013c 04B08DE2 		add	fp, sp, #4
 212              	.LCFI7:
 213              		.cfi_def_cfa 11, 4
 214 0140 08D04DE2 		sub	sp, sp, #8
 215 0144 08000BE5 		str	r0, [fp, #-8]
 216              		.loc 2 22 0
 217 0148 08001BE5 		ldr	r0, [fp, #-8]
 218 014c FEFFFFEB 		bl	_ZN9tinyUnity7Vector3D1Ev
 219 0150 08001BE5 		ldr	r0, [fp, #-8]
 220 0154 FEFFFFEB 		bl	_ZdlPv
 221 0158 08301BE5 		ldr	r3, [fp, #-8]
 222 015c 0300A0E1 		mov	r0, r3
 223 0160 04D04BE2 		sub	sp, fp, #4
 224              		@ sp needed
 225 0164 0048BDE8 		ldmfd	sp!, {fp, lr}
 226 0168 1EFF2FE1 		bx	lr
 227              		.cfi_endproc
 228              	.LFE192:
 230              		.global	__aeabi_i2f
 231              		.global	__aeabi_fdiv
 232              		.align	2
 233              		.global	_ZN9tinyUnity7Vector38DistanceES0_
 235              	_ZN9tinyUnity7Vector38DistanceES0_:
 236              	.LFB193:
  23:../source/tinyUnity/Vector3.cpp **** 
  24:../source/tinyUnity/Vector3.cpp **** float Vector3::Distance(Vector3 v)
  25:../source/tinyUnity/Vector3.cpp **** {
 237              		.loc 2 25 0
 238              		.cfi_startproc
 239              		@ Function supports interworking.
 240              		@ args = 0, pretend = 0, frame = 8
 241              		@ frame_needed = 1, uses_anonymous_args = 0
 242 016c 00482DE9 		stmfd	sp!, {fp, lr}
 243              	.LCFI8:
 244              		.cfi_def_cfa_offset 8
 245              		.cfi_offset 11, -8
 246              		.cfi_offset 14, -4
 247 0170 04B08DE2 		add	fp, sp, #4
 248              	.LCFI9:
 249              		.cfi_def_cfa 11, 4
 250 0174 08D04DE2 		sub	sp, sp, #8
 251 0178 08000BE5 		str	r0, [fp, #-8]
 252 017c 0C100BE5 		str	r1, [fp, #-12]
  26:../source/tinyUnity/Vector3.cpp **** 	return f32tofloat(sqrtf32(v.x*v.x +v.y*v.y +v.z*v.z));
 253              		.loc 2 26 0
 254 0180 0C301BE5 		ldr	r3, [fp, #-12]
 255 0184 B430D3E1 		ldrh	r3, [r3, #4]
 256 0188 0338A0E1 		mov	r3, r3, asl #16
 257 018c 4338A0E1 		mov	r3, r3, asr #16
 258 0190 0C201BE5 		ldr	r2, [fp, #-12]
 259 0194 B420D2E1 		ldrh	r2, [r2, #4]
 260 0198 0228A0E1 		mov	r2, r2, asl #16
 261 019c 4228A0E1 		mov	r2, r2, asr #16
 262 01a0 930202E0 		mul	r2, r3, r2
 263 01a4 0C301BE5 		ldr	r3, [fp, #-12]
 264 01a8 B630D3E1 		ldrh	r3, [r3, #6]
 265 01ac 0338A0E1 		mov	r3, r3, asl #16
 266 01b0 4338A0E1 		mov	r3, r3, asr #16
 267 01b4 0C101BE5 		ldr	r1, [fp, #-12]
 268 01b8 B610D1E1 		ldrh	r1, [r1, #6]
 269 01bc 0118A0E1 		mov	r1, r1, asl #16
 270 01c0 4118A0E1 		mov	r1, r1, asr #16
 271 01c4 910303E0 		mul	r3, r1, r3
 272 01c8 032082E0 		add	r2, r2, r3
 273 01cc 0C301BE5 		ldr	r3, [fp, #-12]
 274 01d0 B830D3E1 		ldrh	r3, [r3, #8]
 275 01d4 0338A0E1 		mov	r3, r3, asl #16
 276 01d8 4338A0E1 		mov	r3, r3, asr #16
 277 01dc 0C101BE5 		ldr	r1, [fp, #-12]
 278 01e0 B810D1E1 		ldrh	r1, [r1, #8]
 279 01e4 0118A0E1 		mov	r1, r1, asl #16
 280 01e8 4118A0E1 		mov	r1, r1, asr #16
 281 01ec 910303E0 		mul	r3, r1, r3
 282 01f0 033082E0 		add	r3, r2, r3
 283 01f4 0300A0E1 		mov	r0, r3
 284 01f8 80FFFFEB 		bl	_ZL7sqrtf32l
 285 01fc 0030A0E1 		mov	r3, r0
 286 0200 0300A0E1 		mov	r0, r3
 287 0204 FEFFFFEB 		bl	__aeabi_i2f
 288 0208 0030A0E1 		mov	r3, r0
 289 020c 0300A0E1 		mov	r0, r3
 290 0210 14109FE5 		ldr	r1, .L23
 291 0214 FEFFFFEB 		bl	__aeabi_fdiv
 292 0218 0030A0E1 		mov	r3, r0
  27:../source/tinyUnity/Vector3.cpp **** }
 293              		.loc 2 27 0
 294 021c 0300A0E1 		mov	r0, r3
 295 0220 04D04BE2 		sub	sp, fp, #4
 296              		@ sp needed
 297 0224 0048BDE8 		ldmfd	sp!, {fp, lr}
 298 0228 1EFF2FE1 		bx	lr
 299              	.L24:
 300              		.align	2
 301              	.L23:
 302 022c 00008045 		.word	1166016512
 303              		.cfi_endproc
 304              	.LFE193:
 306              		.global	_ZTVN9tinyUnity7Vector3E
 307              		.section	.rodata
 308              		.align	3
 311              	_ZTVN9tinyUnity7Vector3E:
 312 0000 00000000 		.word	0
 313 0004 00000000 		.word	0
 314 0008 00000000 		.word	_ZN9tinyUnity7Vector3D1Ev
 315 000c 00000000 		.word	_ZN9tinyUnity7Vector3D0Ev
 316              		.text
 317              	.Letext0:
 318              		.file 3 "/Users/awiebe/devkitPro/devkitARM/arm-none-eabi/include/machine/_default_types.h"
 319              		.file 4 "/Users/awiebe/devkitPro/devkitARM/arm-none-eabi/include/stdint.h"
 320              		.file 5 "/Users/awiebe/devkitPro/libnds/include/nds/ndstypes.h"
 321              		.file 6 "/Users/awiebe/devkitPro/libnds/include/nds/arm9/dynamicArray.h"
 322              		.file 7 "/Users/awiebe/devkitPro/libnds/include/nds/arm9/videoGL.h"
 323              		.file 8 "/Users/awiebe/devkitPro/libnds/include/nds/arm9/background.h"
 324              		.file 9 "/Users/awiebe/devkitPro/libnds/include/nds/arm9/sprite.h"
 325              		.file 10 "../source/tinyUnity/Vector3.h"
 326              		.file 11 "../source/tinyUnity/types.h"
 327              		.file 12 "/Users/awiebe/devkitPro/libnds/include/nds/arm9/video.h"