   1              		.cpu arm9
   2              		.fpu softvfp
   3              		.eabi_attribute 20, 1
   4              		.eabi_attribute 21, 1
   5              		.eabi_attribute 23, 3
   6              		.eabi_attribute 24, 1
   7              		.eabi_attribute 25, 1
   8              		.eabi_attribute 26, 1
   9              		.eabi_attribute 30, 4
  10              		.eabi_attribute 34, 0
  11              		.eabi_attribute 18, 4
  12              		.file	"AudioListener.cpp"
  13              		.text
  14              	.Ltext0:
  15              		.cfi_sections	.debug_frame
  16              		.align	2
  17              		.global	_ZN9tinyUnity13AudioListenerC2Ev
  19              	_ZN9tinyUnity13AudioListenerC2Ev:
  20              	.LFB1:
  21              		.file 1 "../source/tinyUnity/audio/AudioListener.cpp"
   1:../source/tinyUnity/audio/AudioListener.cpp **** /*
   2:../source/tinyUnity/audio/AudioListener.cpp ****  * AudioListender.cpp
   3:../source/tinyUnity/audio/AudioListener.cpp ****  *
   4:../source/tinyUnity/audio/AudioListener.cpp ****  *  Created on: 2013-07-12
   5:../source/tinyUnity/audio/AudioListener.cpp ****  *      Author: awiebe
   6:../source/tinyUnity/audio/AudioListener.cpp ****  */
   7:../source/tinyUnity/audio/AudioListener.cpp **** 
   8:../source/tinyUnity/audio/AudioListener.cpp **** #include "AudioListener.h"
   9:../source/tinyUnity/audio/AudioListener.cpp **** 
  10:../source/tinyUnity/audio/AudioListener.cpp **** namespace tinyUnity {
  11:../source/tinyUnity/audio/AudioListener.cpp **** 
  12:../source/tinyUnity/audio/AudioListener.cpp **** AudioListener::AudioListener() {
  22              		.loc 1 12 0
  23              		.cfi_startproc
  24              		@ Function supports interworking.
  25              		@ args = 0, pretend = 0, frame = 0
  26              		@ frame_needed = 0, uses_anonymous_args = 0
  27              	.LVL0:
  28 0000 10402DE9 		stmfd	sp!, {r4, lr}
  29              	.LCFI0:
  30              		.cfi_def_cfa_offset 8
  31              		.cfi_offset 4, -8
  32              		.cfi_offset 14, -4
  33              		.loc 1 12 0
  34 0004 0040A0E1 		mov	r4, r0
  35              	.LBB2:
  36 0008 FEFFFFEB 		bl	_ZN9tinyUnity9ComponentC2Ev
  37              	.LVL1:
  38 000c 0C309FE5 		ldr	r3, .L2
  39              	.LBE2:
  13:../source/tinyUnity/audio/AudioListener.cpp **** 	// TODO Auto-generated constructor stub
  14:../source/tinyUnity/audio/AudioListener.cpp **** 
  15:../source/tinyUnity/audio/AudioListener.cpp **** }
  40              		.loc 1 15 0
  41 0010 0400A0E1 		mov	r0, r4
  42              	.LBB3:
  12:../source/tinyUnity/audio/AudioListener.cpp **** 	// TODO Auto-generated constructor stub
  43              		.loc 1 12 0
  44 0014 003084E5 		str	r3, [r4]
  45              	.LBE3:
  46              		.loc 1 15 0
  47 0018 1040BDE8 		ldmfd	sp!, {r4, lr}
  48              	.LVL2:
  49 001c 1EFF2FE1 		bx	lr
  50              	.L3:
  51              		.align	2
  52              	.L2:
  53 0020 08000000 		.word	_ZTVN9tinyUnity13AudioListenerE+8
  54              		.cfi_endproc
  55              	.LFE1:
  57              		.global	_ZN9tinyUnity13AudioListenerC1Ev
  58              		.set	_ZN9tinyUnity13AudioListenerC1Ev,_ZN9tinyUnity13AudioListenerC2Ev
  59              		.align	2
  60              		.global	_ZN9tinyUnity13AudioListenerD2Ev
  62              	_ZN9tinyUnity13AudioListenerD2Ev:
  63              	.LFB4:
  16:../source/tinyUnity/audio/AudioListener.cpp **** 
  17:../source/tinyUnity/audio/AudioListener.cpp **** AudioListener::~AudioListener() {
  64              		.loc 1 17 0
  65              		.cfi_startproc
  66              		@ Function supports interworking.
  67              		@ args = 0, pretend = 0, frame = 0
  68              		@ frame_needed = 0, uses_anonymous_args = 0
  69              	.LVL3:
  70 0024 10402DE9 		stmfd	sp!, {r4, lr}
  71              	.LCFI1:
  72              		.cfi_def_cfa_offset 8
  73              		.cfi_offset 4, -8
  74              		.cfi_offset 14, -4
  75              	.LBB4:
  76              		.loc 1 17 0
  77 0028 14309FE5 		ldr	r3, .L5
  78              	.LBE4:
  79 002c 0040A0E1 		mov	r4, r0
  80              	.LBB5:
  81 0030 003080E5 		str	r3, [r0]
  18:../source/tinyUnity/audio/AudioListener.cpp **** 	// TODO Auto-generated destructor stub
  19:../source/tinyUnity/audio/AudioListener.cpp **** }
  82              		.loc 1 19 0
  83 0034 FEFFFFEB 		bl	_ZN9tinyUnity9ComponentD2Ev
  84              	.LVL4:
  85              	.LBE5:
  86 0038 0400A0E1 		mov	r0, r4
  87 003c 1040BDE8 		ldmfd	sp!, {r4, lr}
  88              	.LVL5:
  89 0040 1EFF2FE1 		bx	lr
  90              	.L6:
  91              		.align	2
  92              	.L5:
  93 0044 08000000 		.word	_ZTVN9tinyUnity13AudioListenerE+8
  94              		.cfi_endproc
  95              	.LFE4:
  97              		.global	_ZN9tinyUnity13AudioListenerD1Ev
  98              		.set	_ZN9tinyUnity13AudioListenerD1Ev,_ZN9tinyUnity13AudioListenerD2Ev
  99              		.weak	_ZTVN9tinyUnity13AudioListenerE
 100              		.section	.rodata._ZTVN9tinyUnity13AudioListenerE,"aG",%progbits,_ZTVN9tinyUnity13AudioListenerE,co
 101              		.align	3
 104              	_ZTVN9tinyUnity13AudioListenerE:
 105 0000 00000000 		.word	0
 106 0004 00000000 		.word	0
 107 0008 00000000 		.word	_ZN9tinyUnity9Component11fixedUpdateEv
 108 000c 00000000 		.word	_ZN9tinyUnity9Component6updateEv
 109 0010 00000000 		.word	_ZN9tinyUnity9Component5awakeEv
 110 0014 00000000 		.word	_ZN9tinyUnity9Component16onCollisionEnterEv
 111 0018 00000000 		.word	_ZN9tinyUnity9Component15onCollisionExitEv
 112 001c 00000000 		.text
 113              	.Letext0:
 114              		.file 2 "../source/tinyUnity/audio/../Component.h"
 115              		.file 3 "../source/tinyUnity/audio/AudioListener.h"