   1              		.cpu arm9
   2              		.fpu softvfp
   3              		.eabi_attribute 20, 1
   4              		.eabi_attribute 21, 1
   5              		.eabi_attribute 23, 3
   6              		.eabi_attribute 24, 1
   7              		.eabi_attribute 25, 1
   8              		.eabi_attribute 26, 1
   9              		.eabi_attribute 30, 6
  10              		.eabi_attribute 34, 0
  11              		.eabi_attribute 18, 4
  12              		.file	"Rigidbody.cpp"
  13              		.text
  14              	.Ltext0:
  15              		.cfi_sections	.debug_frame
  16              		.data
  17              		.align	2
  20              	_ZL6glGlob:
  21 0000 00000000 		.word	glGlobalData
  22              		.text
  23              		.align	2
  24              		.global	_ZN9tinyUnity9RigidbodyC2Ev
  26              	_ZN9tinyUnity9RigidbodyC2Ev:
  27              	.LFB187:
  28              		.file 1 "../source/tinyUnity/physics/Rigidbody.cpp"
   1:../source/tinyUnity/physics/Rigidbody.cpp **** /*
   2:../source/tinyUnity/physics/Rigidbody.cpp ****  * Rigidbody.cpp
   3:../source/tinyUnity/physics/Rigidbody.cpp ****  *
   4:../source/tinyUnity/physics/Rigidbody.cpp ****  *  Created on: 2013-07-12
   5:../source/tinyUnity/physics/Rigidbody.cpp ****  *      Author: awiebe
   6:../source/tinyUnity/physics/Rigidbody.cpp ****  */
   7:../source/tinyUnity/physics/Rigidbody.cpp **** 
   8:../source/tinyUnity/physics/Rigidbody.cpp **** #include "Rigidbody.h"
   9:../source/tinyUnity/physics/Rigidbody.cpp **** 
  10:../source/tinyUnity/physics/Rigidbody.cpp **** namespace tinyUnity {
  11:../source/tinyUnity/physics/Rigidbody.cpp **** 
  12:../source/tinyUnity/physics/Rigidbody.cpp **** Rigidbody::Rigidbody() {
  29              		.loc 1 12 0
  30              		.cfi_startproc
  31              		@ Function supports interworking.
  32              		@ args = 0, pretend = 0, frame = 8
  33              		@ frame_needed = 1, uses_anonymous_args = 0
  34 0000 00482DE9 		stmfd	sp!, {fp, lr}
  35              	.LCFI0:
  36              		.cfi_def_cfa_offset 8
  37              		.cfi_offset 11, -8
  38              		.cfi_offset 14, -4
  39 0004 04B08DE2 		add	fp, sp, #4
  40              	.LCFI1:
  41              		.cfi_def_cfa 11, 4
  42 0008 08D04DE2 		sub	sp, sp, #8
  43 000c 08000BE5 		str	r0, [fp, #-8]
  44              	.LBB2:
  45              		.loc 1 12 0
  46 0010 08301BE5 		ldr	r3, [fp, #-8]
  47 0014 0300A0E1 		mov	r0, r3
  48 0018 FEFFFFEB 		bl	_ZN9tinyUnity9ComponentC2Ev
  49 001c 08301BE5 		ldr	r3, [fp, #-8]
  50 0020 14209FE5 		ldr	r2, .L4
  51 0024 002083E5 		str	r2, [r3]
  52              	.LBE2:
  13:../source/tinyUnity/physics/Rigidbody.cpp **** 	// TODO Auto-generated constructor stub
  14:../source/tinyUnity/physics/Rigidbody.cpp **** 
  15:../source/tinyUnity/physics/Rigidbody.cpp **** }
  53              		.loc 1 15 0
  54 0028 08301BE5 		ldr	r3, [fp, #-8]
  55 002c 0300A0E1 		mov	r0, r3
  56 0030 04D04BE2 		sub	sp, fp, #4
  57              		@ sp needed
  58 0034 0048BDE8 		ldmfd	sp!, {fp, lr}
  59 0038 1EFF2FE1 		bx	lr
  60              	.L5:
  61              		.align	2
  62              	.L4:
  63 003c 08000000 		.word	_ZTVN9tinyUnity9RigidbodyE+8
  64              		.cfi_endproc
  65              	.LFE187:
  67              		.global	_ZN9tinyUnity9RigidbodyC1Ev
  68              		.set	_ZN9tinyUnity9RigidbodyC1Ev,_ZN9tinyUnity9RigidbodyC2Ev
  69              		.align	2
  70              		.global	_ZN9tinyUnity9RigidbodyD2Ev
  72              	_ZN9tinyUnity9RigidbodyD2Ev:
  73              	.LFB190:
  16:../source/tinyUnity/physics/Rigidbody.cpp **** 
  17:../source/tinyUnity/physics/Rigidbody.cpp **** Rigidbody::~Rigidbody() {
  74              		.loc 1 17 0
  75              		.cfi_startproc
  76              		@ Function supports interworking.
  77              		@ args = 0, pretend = 0, frame = 8
  78              		@ frame_needed = 1, uses_anonymous_args = 0
  79 0040 00482DE9 		stmfd	sp!, {fp, lr}
  80              	.LCFI2:
  81              		.cfi_def_cfa_offset 8
  82              		.cfi_offset 11, -8
  83              		.cfi_offset 14, -4
  84 0044 04B08DE2 		add	fp, sp, #4
  85              	.LCFI3:
  86              		.cfi_def_cfa 11, 4
  87 0048 08D04DE2 		sub	sp, sp, #8
  88 004c 08000BE5 		str	r0, [fp, #-8]
  89              	.LBB3:
  90              		.loc 1 17 0
  91 0050 08301BE5 		ldr	r3, [fp, #-8]
  92 0054 34209FE5 		ldr	r2, .L10
  93 0058 002083E5 		str	r2, [r3]
  94 005c 08301BE5 		ldr	r3, [fp, #-8]
  18:../source/tinyUnity/physics/Rigidbody.cpp **** 	// TODO Auto-generated destructor stub
  19:../source/tinyUnity/physics/Rigidbody.cpp **** }
  95              		.loc 1 19 0
  96 0060 0300A0E1 		mov	r0, r3
  97 0064 FEFFFFEB 		bl	_ZN9tinyUnity9ComponentD2Ev
  98              	.LBE3:
  99 0068 0030A0E3 		mov	r3, #0
 100 006c 000053E3 		cmp	r3, #0
 101 0070 0100000A 		beq	.L8
 102              		.loc 1 19 0 is_stmt 0 discriminator 1
 103 0074 08001BE5 		ldr	r0, [fp, #-8]
 104 0078 FEFFFFEB 		bl	_ZdlPv
 105              	.L8:
 106              		.loc 1 19 0 discriminator 2
 107 007c 08301BE5 		ldr	r3, [fp, #-8]
 108 0080 0300A0E1 		mov	r0, r3
 109 0084 04D04BE2 		sub	sp, fp, #4
 110              		@ sp needed
 111 0088 0048BDE8 		ldmfd	sp!, {fp, lr}
 112 008c 1EFF2FE1 		bx	lr
 113              	.L11:
 114              		.align	2
 115              	.L10:
 116 0090 08000000 		.word	_ZTVN9tinyUnity9RigidbodyE+8
 117              		.cfi_endproc
 118              	.LFE190:
 120              		.global	_ZN9tinyUnity9RigidbodyD1Ev
 121              		.set	_ZN9tinyUnity9RigidbodyD1Ev,_ZN9tinyUnity9RigidbodyD2Ev
 122              		.align	2
 123              		.global	_ZN9tinyUnity9RigidbodyD0Ev
 125              	_ZN9tinyUnity9RigidbodyD0Ev:
 126              	.LFB192:
  17:../source/tinyUnity/physics/Rigidbody.cpp **** 	// TODO Auto-generated destructor stub
 127              		.loc 1 17 0 is_stmt 1
 128              		.cfi_startproc
 129              		@ Function supports interworking.
 130              		@ args = 0, pretend = 0, frame = 8
 131              		@ frame_needed = 1, uses_anonymous_args = 0
 132 0094 00482DE9 		stmfd	sp!, {fp, lr}
 133              	.LCFI4:
 134              		.cfi_def_cfa_offset 8
 135              		.cfi_offset 11, -8
 136              		.cfi_offset 14, -4
 137 0098 04B08DE2 		add	fp, sp, #4
 138              	.LCFI5:
 139              		.cfi_def_cfa 11, 4
 140 009c 08D04DE2 		sub	sp, sp, #8
 141 00a0 08000BE5 		str	r0, [fp, #-8]
 142              		.loc 1 19 0
 143 00a4 08001BE5 		ldr	r0, [fp, #-8]
 144 00a8 FEFFFFEB 		bl	_ZN9tinyUnity9RigidbodyD1Ev
 145 00ac 08001BE5 		ldr	r0, [fp, #-8]
 146 00b0 FEFFFFEB 		bl	_ZdlPv
 147 00b4 08301BE5 		ldr	r3, [fp, #-8]
 148 00b8 0300A0E1 		mov	r0, r3
 149 00bc 04D04BE2 		sub	sp, fp, #4
 150              		@ sp needed
 151 00c0 0048BDE8 		ldmfd	sp!, {fp, lr}
 152 00c4 1EFF2FE1 		bx	lr
 153              		.cfi_endproc
 154              	.LFE192:
 156              		.align	2
 157              		.global	_ZN9tinyUnity9Rigidbody11fixedUpdateEv
 159              	_ZN9tinyUnity9Rigidbody11fixedUpdateEv:
 160              	.LFB193:
  20:../source/tinyUnity/physics/Rigidbody.cpp **** 
  21:../source/tinyUnity/physics/Rigidbody.cpp **** 
  22:../source/tinyUnity/physics/Rigidbody.cpp **** 
  23:../source/tinyUnity/physics/Rigidbody.cpp **** void Rigidbody::fixedUpdate()
  24:../source/tinyUnity/physics/Rigidbody.cpp **** {
 161              		.loc 1 24 0
 162              		.cfi_startproc
 163              		@ Function supports interworking.
 164              		@ args = 0, pretend = 0, frame = 8
 165              		@ frame_needed = 1, uses_anonymous_args = 0
 166              		@ link register save eliminated.
 167 00c8 04B02DE5 		str	fp, [sp, #-4]!
 168              	.LCFI6:
 169              		.cfi_def_cfa_offset 4
 170              		.cfi_offset 11, -4
 171 00cc 00B08DE2 		add	fp, sp, #0
 172              	.LCFI7:
 173              		.cfi_def_cfa_register 11
 174 00d0 0CD04DE2 		sub	sp, sp, #12
 175 00d4 08000BE5 		str	r0, [fp, #-8]
  25:../source/tinyUnity/physics/Rigidbody.cpp **** 	//getGameObject()->getComponent<Transform>()->Translate(this->velocity);
  26:../source/tinyUnity/physics/Rigidbody.cpp **** }
 176              		.loc 1 26 0
 177 00d8 00D04BE2 		sub	sp, fp, #0
 178              		@ sp needed
 179 00dc 04B09DE4 		ldr	fp, [sp], #4
 180 00e0 1EFF2FE1 		bx	lr
 181              		.cfi_endproc
 182              	.LFE193:
 184              		.global	_ZTVN9tinyUnity9RigidbodyE
 185              		.section	.rodata
 186              		.align	3
 189              	_ZTVN9tinyUnity9RigidbodyE:
 190 0000 00000000 		.word	0
 191 0004 00000000 		.word	0
 192 0008 00000000 		.word	_ZN9tinyUnity9Component19runScheduledRoutineEi
 193 000c 00000000 		.word	_ZN9tinyUnity9RigidbodyD1Ev
 194 0010 00000000 		.word	_ZN9tinyUnity9RigidbodyD0Ev
 195 0014 00000000 		.text
 196              	.Letext0:
 197              		.file 2 "/Users/awiebe/devkitPro/devkitARM/arm-none-eabi/include/machine/_default_types.h"
 198              		.file 3 "/Users/awiebe/devkitPro/devkitARM/arm-none-eabi/include/stdint.h"
 199              		.file 4 "/Users/awiebe/devkitPro/libnds/include/nds/ndstypes.h"
 200              		.file 5 "/Users/awiebe/devkitPro/libnds/include/nds/system.h"
 201              		.file 6 "/Users/awiebe/devkitPro/libnds/include/nds/arm9/dynamicArray.h"
 202              		.file 7 "/Users/awiebe/devkitPro/libnds/include/nds/arm9/background.h"
 203              		.file 8 "/Users/awiebe/devkitPro/libnds/include/nds/arm9/videoGL.h"
 204              		.file 9 "/Users/awiebe/devkitPro/libnds/include/nds/arm9/sprite.h"
 205              		.file 10 "../source/tinyUnity/physics/Rigidbody.h"
 206              		.file 11 "../source/tinyUnity/physics/../types.h"
 207              		.file 12 "/Users/awiebe/devkitPro/libnds/include/nds/arm9/video.h"